
/home/adam/mit_6.375/lab5-harness/programs/assembly/../build/assembly/bin/bltu.riscv:     file format elf32-littleriscv


Disassembly of section .text:

00000200 <_start>:
 200:	00200e13          	li	t3,2
 204:	00000093          	li	ra,0
 208:	00100113          	li	sp,1
 20c:	0020e663          	bltu	ra,sp,218 <_start+0x18>
 210:	2fc01463          	bne	zero,t3,4f8 <fail>
 214:	01c01663          	bne	zero,t3,220 <test_3>
 218:	fe20eee3          	bltu	ra,sp,214 <_start+0x14>
 21c:	2dc01e63          	bne	zero,t3,4f8 <fail>

00000220 <test_3>:
 220:	00300e13          	li	t3,3
 224:	ffe00093          	li	ra,-2
 228:	fff00113          	li	sp,-1
 22c:	0020e663          	bltu	ra,sp,238 <test_3+0x18>
 230:	2dc01463          	bne	zero,t3,4f8 <fail>
 234:	01c01663          	bne	zero,t3,240 <test_4>
 238:	fe20eee3          	bltu	ra,sp,234 <test_3+0x14>
 23c:	2bc01e63          	bne	zero,t3,4f8 <fail>

00000240 <test_4>:
 240:	00400e13          	li	t3,4
 244:	00000093          	li	ra,0
 248:	fff00113          	li	sp,-1
 24c:	0020e663          	bltu	ra,sp,258 <test_4+0x18>
 250:	2bc01463          	bne	zero,t3,4f8 <fail>
 254:	01c01663          	bne	zero,t3,260 <test_5>
 258:	fe20eee3          	bltu	ra,sp,254 <test_4+0x14>
 25c:	29c01e63          	bne	zero,t3,4f8 <fail>

00000260 <test_5>:
 260:	00500e13          	li	t3,5
 264:	00100093          	li	ra,1
 268:	00000113          	li	sp,0
 26c:	0020e463          	bltu	ra,sp,274 <test_5+0x14>
 270:	01c01463          	bne	zero,t3,278 <test_5+0x18>
 274:	29c01263          	bne	zero,t3,4f8 <fail>
 278:	fe20eee3          	bltu	ra,sp,274 <test_5+0x14>

0000027c <test_6>:
 27c:	00600e13          	li	t3,6
 280:	fff00093          	li	ra,-1
 284:	ffe00113          	li	sp,-2
 288:	0020e463          	bltu	ra,sp,290 <test_6+0x14>
 28c:	01c01463          	bne	zero,t3,294 <test_6+0x18>
 290:	27c01463          	bne	zero,t3,4f8 <fail>
 294:	fe20eee3          	bltu	ra,sp,290 <test_6+0x14>

00000298 <test_7>:
 298:	00700e13          	li	t3,7
 29c:	fff00093          	li	ra,-1
 2a0:	00000113          	li	sp,0
 2a4:	0020e463          	bltu	ra,sp,2ac <test_7+0x14>
 2a8:	01c01463          	bne	zero,t3,2b0 <test_7+0x18>
 2ac:	25c01663          	bne	zero,t3,4f8 <fail>
 2b0:	fe20eee3          	bltu	ra,sp,2ac <test_7+0x14>

000002b4 <test_8>:
 2b4:	00800e13          	li	t3,8
 2b8:	800000b7          	lui	ra,0x80000
 2bc:	80000137          	lui	sp,0x80000
 2c0:	fff10113          	addi	sp,sp,-1 # 7fffffff <begin_signature+0x7fffefff>
 2c4:	0020e463          	bltu	ra,sp,2cc <test_8+0x18>
 2c8:	01c01463          	bne	zero,t3,2d0 <test_8+0x1c>
 2cc:	23c01663          	bne	zero,t3,4f8 <fail>
 2d0:	fe20eee3          	bltu	ra,sp,2cc <test_8+0x18>

000002d4 <test_9>:
 2d4:	00900e13          	li	t3,9
 2d8:	00000213          	li	tp,0
 2dc:	f00000b7          	lui	ra,0xf0000
 2e0:	f0000137          	lui	sp,0xf0000
 2e4:	fff10113          	addi	sp,sp,-1 # efffffff <begin_signature+0xefffefff>
 2e8:	2020e863          	bltu	ra,sp,4f8 <fail>
 2ec:	00120213          	addi	tp,tp,1 # 1 <_start-0x1ff>
 2f0:	00200293          	li	t0,2
 2f4:	fe5214e3          	bne	tp,t0,2dc <test_9+0x8>

000002f8 <test_10>:
 2f8:	00a00e13          	li	t3,10
 2fc:	00000213          	li	tp,0
 300:	f00000b7          	lui	ra,0xf0000
 304:	f0000137          	lui	sp,0xf0000
 308:	fff10113          	addi	sp,sp,-1 # efffffff <begin_signature+0xefffefff>
 30c:	00000013          	nop
 310:	1e20e463          	bltu	ra,sp,4f8 <fail>
 314:	00120213          	addi	tp,tp,1 # 1 <_start-0x1ff>
 318:	00200293          	li	t0,2
 31c:	fe5212e3          	bne	tp,t0,300 <test_10+0x8>

00000320 <test_11>:
 320:	00b00e13          	li	t3,11
 324:	00000213          	li	tp,0
 328:	f00000b7          	lui	ra,0xf0000
 32c:	f0000137          	lui	sp,0xf0000
 330:	fff10113          	addi	sp,sp,-1 # efffffff <begin_signature+0xefffefff>
 334:	00000013          	nop
 338:	00000013          	nop
 33c:	1a20ee63          	bltu	ra,sp,4f8 <fail>
 340:	00120213          	addi	tp,tp,1 # 1 <_start-0x1ff>
 344:	00200293          	li	t0,2
 348:	fe5210e3          	bne	tp,t0,328 <test_11+0x8>

0000034c <test_12>:
 34c:	00c00e13          	li	t3,12
 350:	00000213          	li	tp,0
 354:	f00000b7          	lui	ra,0xf0000
 358:	00000013          	nop
 35c:	f0000137          	lui	sp,0xf0000
 360:	fff10113          	addi	sp,sp,-1 # efffffff <begin_signature+0xefffefff>
 364:	1820ea63          	bltu	ra,sp,4f8 <fail>
 368:	00120213          	addi	tp,tp,1 # 1 <_start-0x1ff>
 36c:	00200293          	li	t0,2
 370:	fe5212e3          	bne	tp,t0,354 <test_12+0x8>

00000374 <test_13>:
 374:	00d00e13          	li	t3,13
 378:	00000213          	li	tp,0
 37c:	f00000b7          	lui	ra,0xf0000
 380:	00000013          	nop
 384:	f0000137          	lui	sp,0xf0000
 388:	fff10113          	addi	sp,sp,-1 # efffffff <begin_signature+0xefffefff>
 38c:	00000013          	nop
 390:	1620e463          	bltu	ra,sp,4f8 <fail>
 394:	00120213          	addi	tp,tp,1 # 1 <_start-0x1ff>
 398:	00200293          	li	t0,2
 39c:	fe5210e3          	bne	tp,t0,37c <test_13+0x8>

000003a0 <test_14>:
 3a0:	00e00e13          	li	t3,14
 3a4:	00000213          	li	tp,0
 3a8:	f00000b7          	lui	ra,0xf0000
 3ac:	00000013          	nop
 3b0:	00000013          	nop
 3b4:	f0000137          	lui	sp,0xf0000
 3b8:	fff10113          	addi	sp,sp,-1 # efffffff <begin_signature+0xefffefff>
 3bc:	1220ee63          	bltu	ra,sp,4f8 <fail>
 3c0:	00120213          	addi	tp,tp,1 # 1 <_start-0x1ff>
 3c4:	00200293          	li	t0,2
 3c8:	fe5210e3          	bne	tp,t0,3a8 <test_14+0x8>

000003cc <test_15>:
 3cc:	00f00e13          	li	t3,15
 3d0:	00000213          	li	tp,0
 3d4:	f00000b7          	lui	ra,0xf0000
 3d8:	f0000137          	lui	sp,0xf0000
 3dc:	fff10113          	addi	sp,sp,-1 # efffffff <begin_signature+0xefffefff>
 3e0:	1020ec63          	bltu	ra,sp,4f8 <fail>
 3e4:	00120213          	addi	tp,tp,1 # 1 <_start-0x1ff>
 3e8:	00200293          	li	t0,2
 3ec:	fe5214e3          	bne	tp,t0,3d4 <test_15+0x8>

000003f0 <test_16>:
 3f0:	01000e13          	li	t3,16
 3f4:	00000213          	li	tp,0
 3f8:	f00000b7          	lui	ra,0xf0000
 3fc:	f0000137          	lui	sp,0xf0000
 400:	fff10113          	addi	sp,sp,-1 # efffffff <begin_signature+0xefffefff>
 404:	00000013          	nop
 408:	0e20e863          	bltu	ra,sp,4f8 <fail>
 40c:	00120213          	addi	tp,tp,1 # 1 <_start-0x1ff>
 410:	00200293          	li	t0,2
 414:	fe5212e3          	bne	tp,t0,3f8 <test_16+0x8>

00000418 <test_17>:
 418:	01100e13          	li	t3,17
 41c:	00000213          	li	tp,0
 420:	f00000b7          	lui	ra,0xf0000
 424:	f0000137          	lui	sp,0xf0000
 428:	fff10113          	addi	sp,sp,-1 # efffffff <begin_signature+0xefffefff>
 42c:	00000013          	nop
 430:	00000013          	nop
 434:	0c20e263          	bltu	ra,sp,4f8 <fail>
 438:	00120213          	addi	tp,tp,1 # 1 <_start-0x1ff>
 43c:	00200293          	li	t0,2
 440:	fe5210e3          	bne	tp,t0,420 <test_17+0x8>

00000444 <test_18>:
 444:	01200e13          	li	t3,18
 448:	00000213          	li	tp,0
 44c:	f00000b7          	lui	ra,0xf0000
 450:	00000013          	nop
 454:	f0000137          	lui	sp,0xf0000
 458:	fff10113          	addi	sp,sp,-1 # efffffff <begin_signature+0xefffefff>
 45c:	0820ee63          	bltu	ra,sp,4f8 <fail>
 460:	00120213          	addi	tp,tp,1 # 1 <_start-0x1ff>
 464:	00200293          	li	t0,2
 468:	fe5212e3          	bne	tp,t0,44c <test_18+0x8>

0000046c <test_19>:
 46c:	01300e13          	li	t3,19
 470:	00000213          	li	tp,0
 474:	f00000b7          	lui	ra,0xf0000
 478:	00000013          	nop
 47c:	f0000137          	lui	sp,0xf0000
 480:	fff10113          	addi	sp,sp,-1 # efffffff <begin_signature+0xefffefff>
 484:	00000013          	nop
 488:	0620e863          	bltu	ra,sp,4f8 <fail>
 48c:	00120213          	addi	tp,tp,1 # 1 <_start-0x1ff>
 490:	00200293          	li	t0,2
 494:	fe5210e3          	bne	tp,t0,474 <test_19+0x8>

00000498 <test_20>:
 498:	01400e13          	li	t3,20
 49c:	00000213          	li	tp,0
 4a0:	f00000b7          	lui	ra,0xf0000
 4a4:	00000013          	nop
 4a8:	00000013          	nop
 4ac:	f0000137          	lui	sp,0xf0000
 4b0:	fff10113          	addi	sp,sp,-1 # efffffff <begin_signature+0xefffefff>
 4b4:	0420e263          	bltu	ra,sp,4f8 <fail>
 4b8:	00120213          	addi	tp,tp,1 # 1 <_start-0x1ff>
 4bc:	00200293          	li	t0,2
 4c0:	fe5210e3          	bne	tp,t0,4a0 <test_20+0x8>

000004c4 <test_21>:
 4c4:	00100093          	li	ra,1
 4c8:	00106a63          	bltu	zero,ra,4dc <test_21+0x18>
 4cc:	00108093          	addi	ra,ra,1 # f0000001 <begin_signature+0xeffff001>
 4d0:	00108093          	addi	ra,ra,1
 4d4:	00108093          	addi	ra,ra,1
 4d8:	00108093          	addi	ra,ra,1
 4dc:	00108093          	addi	ra,ra,1
 4e0:	00108093          	addi	ra,ra,1
 4e4:	00300e93          	li	t4,3
 4e8:	01500e13          	li	t3,21
 4ec:	01d09663          	bne	ra,t4,4f8 <fail>
 4f0:	01c01663          	bne	zero,t3,4fc <pass>
 4f4:	00100e13          	li	t3,1

000004f8 <fail>:
 4f8:	00c0006f          	j	504 <exit>

000004fc <pass>:
 4fc:	00000e13          	li	t3,0
 500:	0040006f          	j	504 <exit>

00000504 <exit>:
 504:	c0002573          	rdcycle	a0
 508:	c02025f3          	rdinstret	a1
 50c:	01051613          	slli	a2,a0,0x10
 510:	01065613          	srli	a2,a2,0x10
 514:	000206b7          	lui	a3,0x20
 518:	00d666b3          	or	a3,a2,a3
 51c:	78069073          	csrw	mtohost,a3
 520:	01055613          	srli	a2,a0,0x10
 524:	000306b7          	lui	a3,0x30
 528:	00d666b3          	or	a3,a2,a3
 52c:	78069073          	csrw	mtohost,a3
 530:	00010637          	lui	a2,0x10
 534:	00a60613          	addi	a2,a2,10 # 1000a <begin_signature+0xf00a>
 538:	78061073          	csrw	mtohost,a2
 53c:	01059613          	slli	a2,a1,0x10
 540:	01065613          	srli	a2,a2,0x10
 544:	000201b7          	lui	gp,0x20
 548:	003661b3          	or	gp,a2,gp
 54c:	78019073          	csrw	mtohost,gp
 550:	0105d613          	srli	a2,a1,0x10
 554:	000301b7          	lui	gp,0x30
 558:	003661b3          	or	gp,a2,gp
 55c:	78019073          	csrw	mtohost,gp
 560:	00010637          	lui	a2,0x10
 564:	00a60613          	addi	a2,a2,10 # 1000a <begin_signature+0xf00a>
 568:	78061073          	csrw	mtohost,a2
 56c:	780e1073          	csrw	mtohost,t3
 570:	0000006f          	j	570 <exit+0x6c>
 574:	0000                	.2byte	0x0
 576:	0000                	.2byte	0x0
 578:	0000                	.2byte	0x0
 57a:	0000                	.2byte	0x0
 57c:	0000                	.2byte	0x0
 57e:	0000                	.2byte	0x0
 580:	0000                	.2byte	0x0
 582:	0000                	.2byte	0x0
