
/home/adam/mit_6.375/lab5-harness/programs/assembly/../build/assembly/bin/bpred_j_noloop.riscv:     file format elf32-littleriscv


Disassembly of section .text:

00000200 <_start>:
 200:	00000e13          	li	t3,0
 204:	0f80006f          	j	2fc <step1>
 208:	00100e13          	li	t3,1

0000020c <step31>:
 20c:	0f80006f          	j	304 <step32>
 210:	02000e13          	li	t3,32

00000214 <step30>:
 214:	ff9ff06f          	j	20c <step31>
 218:	01f00e13          	li	t3,31

0000021c <step29>:
 21c:	ff9ff06f          	j	214 <step30>
 220:	01e00e13          	li	t3,30

00000224 <step28>:
 224:	ff9ff06f          	j	21c <step29>
 228:	01d00e13          	li	t3,29

0000022c <step27>:
 22c:	ff9ff06f          	j	224 <step28>
 230:	01c00e13          	li	t3,28

00000234 <step26>:
 234:	ff9ff06f          	j	22c <step27>
 238:	01b00e13          	li	t3,27

0000023c <step25>:
 23c:	ff9ff06f          	j	234 <step26>
 240:	01a00e13          	li	t3,26

00000244 <step24>:
 244:	ff9ff06f          	j	23c <step25>
 248:	01900e13          	li	t3,25

0000024c <step23>:
 24c:	ff9ff06f          	j	244 <step24>
 250:	01800e13          	li	t3,24

00000254 <step22>:
 254:	ff9ff06f          	j	24c <step23>
 258:	01700e13          	li	t3,23

0000025c <step21>:
 25c:	ff9ff06f          	j	254 <step22>
 260:	01600e13          	li	t3,22

00000264 <step20>:
 264:	ff9ff06f          	j	25c <step21>
 268:	01500e13          	li	t3,21

0000026c <step19>:
 26c:	ff9ff06f          	j	264 <step20>
 270:	01400e13          	li	t3,20

00000274 <step18>:
 274:	ff9ff06f          	j	26c <step19>
 278:	01300e13          	li	t3,19

0000027c <step17>:
 27c:	ff9ff06f          	j	274 <step18>
 280:	01200e13          	li	t3,18

00000284 <step16>:
 284:	ff9ff06f          	j	27c <step17>
 288:	01100e13          	li	t3,17

0000028c <step15>:
 28c:	ff9ff06f          	j	284 <step16>
 290:	01000e13          	li	t3,16

00000294 <step14>:
 294:	ff9ff06f          	j	28c <step15>
 298:	00f00e13          	li	t3,15

0000029c <step13>:
 29c:	ff9ff06f          	j	294 <step14>
 2a0:	00e00e13          	li	t3,14

000002a4 <step12>:
 2a4:	ff9ff06f          	j	29c <step13>
 2a8:	00d00e13          	li	t3,13

000002ac <step11>:
 2ac:	ff9ff06f          	j	2a4 <step12>
 2b0:	00c00e13          	li	t3,12

000002b4 <step10>:
 2b4:	ff9ff06f          	j	2ac <step11>
 2b8:	00b00e13          	li	t3,11

000002bc <step9>:
 2bc:	ff9ff06f          	j	2b4 <step10>
 2c0:	00a00e13          	li	t3,10

000002c4 <step8>:
 2c4:	ff9ff06f          	j	2bc <step9>
 2c8:	00900e13          	li	t3,9

000002cc <step7>:
 2cc:	ff9ff06f          	j	2c4 <step8>
 2d0:	00800e13          	li	t3,8

000002d4 <step6>:
 2d4:	ff9ff06f          	j	2cc <step7>
 2d8:	00700e13          	li	t3,7

000002dc <step5>:
 2dc:	ff9ff06f          	j	2d4 <step6>
 2e0:	00600e13          	li	t3,6

000002e4 <step4>:
 2e4:	ff9ff06f          	j	2dc <step5>
 2e8:	00500e13          	li	t3,5

000002ec <step3>:
 2ec:	ff9ff06f          	j	2e4 <step4>
 2f0:	00400e13          	li	t3,4

000002f4 <step2>:
 2f4:	ff9ff06f          	j	2ec <step3>
 2f8:	00300e13          	li	t3,3

000002fc <step1>:
 2fc:	ff9ff06f          	j	2f4 <step2>
 300:	00200e13          	li	t3,2

00000304 <step32>:
 304:	000e0a63          	beqz	t3,318 <pass>
 308:	00c0006f          	j	314 <fail>
 30c:	01c01663          	bne	zero,t3,318 <pass>
 310:	00100e13          	li	t3,1

00000314 <fail>:
 314:	00c0006f          	j	320 <exit>

00000318 <pass>:
 318:	00000e13          	li	t3,0
 31c:	0040006f          	j	320 <exit>

00000320 <exit>:
 320:	c0002573          	rdcycle	a0
 324:	c02025f3          	rdinstret	a1
 328:	01051613          	slli	a2,a0,0x10
 32c:	01065613          	srli	a2,a2,0x10
 330:	000206b7          	lui	a3,0x20
 334:	00d666b3          	or	a3,a2,a3
 338:	78069073          	csrw	mtohost,a3
 33c:	01055613          	srli	a2,a0,0x10
 340:	000306b7          	lui	a3,0x30
 344:	00d666b3          	or	a3,a2,a3
 348:	78069073          	csrw	mtohost,a3
 34c:	00010637          	lui	a2,0x10
 350:	00a60613          	addi	a2,a2,10 # 1000a <begin_signature+0xf00a>
 354:	78061073          	csrw	mtohost,a2
 358:	01059613          	slli	a2,a1,0x10
 35c:	01065613          	srli	a2,a2,0x10
 360:	000201b7          	lui	gp,0x20
 364:	003661b3          	or	gp,a2,gp
 368:	78019073          	csrw	mtohost,gp
 36c:	0105d613          	srli	a2,a1,0x10
 370:	000301b7          	lui	gp,0x30
 374:	003661b3          	or	gp,a2,gp
 378:	78019073          	csrw	mtohost,gp
 37c:	00010637          	lui	a2,0x10
 380:	00a60613          	addi	a2,a2,10 # 1000a <begin_signature+0xf00a>
 384:	78061073          	csrw	mtohost,a2
 388:	780e1073          	csrw	mtohost,t3
 38c:	0000006f          	j	38c <exit+0x6c>
 390:	0000                	.2byte	0x0
 392:	0000                	.2byte	0x0
 394:	0000                	.2byte	0x0
 396:	0000                	.2byte	0x0
 398:	0000                	.2byte	0x0
 39a:	0000                	.2byte	0x0
 39c:	0000                	.2byte	0x0
 39e:	0000                	.2byte	0x0
 3a0:	0000                	.2byte	0x0
 3a2:	0000                	.2byte	0x0
 3a4:	0000                	.2byte	0x0
 3a6:	0000                	.2byte	0x0
 3a8:	0000                	.2byte	0x0
 3aa:	0000                	.2byte	0x0
 3ac:	0000                	.2byte	0x0
 3ae:	0000                	.2byte	0x0
 3b0:	0000                	.2byte	0x0
 3b2:	0000                	.2byte	0x0
 3b4:	0000                	.2byte	0x0
 3b6:	0000                	.2byte	0x0
 3b8:	0000                	.2byte	0x0
 3ba:	0000                	.2byte	0x0
 3bc:	0000                	.2byte	0x0
 3be:	0000                	.2byte	0x0
 3c0:	0000                	.2byte	0x0
 3c2:	0000                	.2byte	0x0
