
/home/adam/mit_6.375/lab5-harness/programs/assembly/../build/assembly/bin/jalr.riscv:     file format elf32-littleriscv


Disassembly of section .text:

00000200 <_start>:
 200:	00200e13          	li	t3,2
 204:	00000f93          	li	t6,0
 208:	00000117          	auipc	sp,0x0
 20c:	01810113          	addi	sp,sp,24 # 220 <target_2>

00000210 <linkaddr_2>:
 210:	000109e7          	jalr	s3,sp
 214:	00000013          	nop
 218:	00000013          	nop
 21c:	0e80006f          	j	304 <fail>

00000220 <target_2>:
 220:	00000097          	auipc	ra,0x0
 224:	ff008093          	addi	ra,ra,-16 # 210 <linkaddr_2>
 228:	00408093          	addi	ra,ra,4
 22c:	0d309c63          	bne	ra,s3,304 <fail>

00000230 <test_3>:
 230:	00300e13          	li	t3,3
 234:	00000f93          	li	t6,0
 238:	00000197          	auipc	gp,0x0
 23c:	01418193          	addi	gp,gp,20 # 24c <target_3>

00000240 <linkaddr_3>:
 240:	00018067          	jr	gp
 244:	00000013          	nop
 248:	0bc0006f          	j	304 <fail>

0000024c <target_3>:
 24c:	0a0f9c63          	bnez	t6,304 <fail>

00000250 <test_4>:
 250:	00400e13          	li	t3,4
 254:	00000213          	li	tp,0
 258:	00000317          	auipc	t1,0x0
 25c:	01030313          	addi	t1,t1,16 # 268 <test_4+0x18>
 260:	000309e7          	jalr	s3,t1
 264:	0bc01063          	bne	zero,t3,304 <fail>
 268:	00120213          	addi	tp,tp,1 # 1 <_start-0x1ff>
 26c:	00200293          	li	t0,2
 270:	fe5214e3          	bne	tp,t0,258 <test_4+0x8>

00000274 <test_5>:
 274:	00500e13          	li	t3,5
 278:	00000213          	li	tp,0
 27c:	00000317          	auipc	t1,0x0
 280:	01430313          	addi	t1,t1,20 # 290 <test_5+0x1c>
 284:	00000013          	nop
 288:	000309e7          	jalr	s3,t1
 28c:	07c01c63          	bne	zero,t3,304 <fail>
 290:	00120213          	addi	tp,tp,1 # 1 <_start-0x1ff>
 294:	00200293          	li	t0,2
 298:	fe5212e3          	bne	tp,t0,27c <test_5+0x8>

0000029c <test_6>:
 29c:	00600e13          	li	t3,6
 2a0:	00000213          	li	tp,0
 2a4:	00000317          	auipc	t1,0x0
 2a8:	01830313          	addi	t1,t1,24 # 2bc <test_6+0x20>
 2ac:	00000013          	nop
 2b0:	00000013          	nop
 2b4:	000309e7          	jalr	s3,t1
 2b8:	05c01663          	bne	zero,t3,304 <fail>
 2bc:	00120213          	addi	tp,tp,1 # 1 <_start-0x1ff>
 2c0:	00200293          	li	t0,2
 2c4:	fe5210e3          	bne	tp,t0,2a4 <test_6+0x8>

000002c8 <test_7>:
 2c8:	00100093          	li	ra,1
 2cc:	00000117          	auipc	sp,0x0
 2d0:	01c10113          	addi	sp,sp,28 # 2e8 <test_7+0x20>
 2d4:	ffc109e7          	jalr	s3,-4(sp)
 2d8:	00108093          	addi	ra,ra,1
 2dc:	00108093          	addi	ra,ra,1
 2e0:	00108093          	addi	ra,ra,1
 2e4:	00108093          	addi	ra,ra,1
 2e8:	00108093          	addi	ra,ra,1
 2ec:	00108093          	addi	ra,ra,1
 2f0:	00400e93          	li	t4,4
 2f4:	00700e13          	li	t3,7
 2f8:	01d09663          	bne	ra,t4,304 <fail>
 2fc:	01c01663          	bne	zero,t3,308 <pass>
 300:	00100e13          	li	t3,1

00000304 <fail>:
 304:	00c0006f          	j	310 <exit>

00000308 <pass>:
 308:	00000e13          	li	t3,0
 30c:	0040006f          	j	310 <exit>

00000310 <exit>:
 310:	c0002573          	rdcycle	a0
 314:	c02025f3          	rdinstret	a1
 318:	01051613          	slli	a2,a0,0x10
 31c:	01065613          	srli	a2,a2,0x10
 320:	000206b7          	lui	a3,0x20
 324:	00d666b3          	or	a3,a2,a3
 328:	78069073          	csrw	mtohost,a3
 32c:	01055613          	srli	a2,a0,0x10
 330:	000306b7          	lui	a3,0x30
 334:	00d666b3          	or	a3,a2,a3
 338:	78069073          	csrw	mtohost,a3
 33c:	00010637          	lui	a2,0x10
 340:	00a60613          	addi	a2,a2,10 # 1000a <begin_signature+0xf00a>
 344:	78061073          	csrw	mtohost,a2
 348:	01059613          	slli	a2,a1,0x10
 34c:	01065613          	srli	a2,a2,0x10
 350:	000201b7          	lui	gp,0x20
 354:	003661b3          	or	gp,a2,gp
 358:	78019073          	csrw	mtohost,gp
 35c:	0105d613          	srli	a2,a1,0x10
 360:	000301b7          	lui	gp,0x30
 364:	003661b3          	or	gp,a2,gp
 368:	78019073          	csrw	mtohost,gp
 36c:	00010637          	lui	a2,0x10
 370:	00a60613          	addi	a2,a2,10 # 1000a <begin_signature+0xf00a>
 374:	78061073          	csrw	mtohost,a2
 378:	780e1073          	csrw	mtohost,t3
 37c:	0000006f          	j	37c <exit+0x6c>
 380:	0000                	.2byte	0x0
 382:	0000                	.2byte	0x0
