
/home/adam/mit_6.375/lab5-harness/programs/assembly/../build/assembly/bin/or.riscv:     file format elf32-littleriscv


Disassembly of section .text:

00000200 <_start>:
 200:	ff0100b7          	lui	ra,0xff010
 204:	f0008093          	addi	ra,ra,-256 # ff00ff00 <begin_signature+0xff00ef00>
 208:	0f0f1137          	lui	sp,0xf0f1
 20c:	f0f10113          	addi	sp,sp,-241 # f0f0f0f <begin_signature+0xf0eff0f>
 210:	0020e1b3          	or	gp,ra,sp
 214:	ff100eb7          	lui	t4,0xff100
 218:	f0fe8e93          	addi	t4,t4,-241 # ff0fff0f <begin_signature+0xff0fef0f>
 21c:	00200e13          	li	t3,2
 220:	4bd19463          	bne	gp,t4,6c8 <fail>

00000224 <test_3>:
 224:	0ff010b7          	lui	ra,0xff01
 228:	ff008093          	addi	ra,ra,-16 # ff00ff0 <begin_signature+0xfeffff0>
 22c:	f0f0f137          	lui	sp,0xf0f0f
 230:	0f010113          	addi	sp,sp,240 # f0f0f0f0 <begin_signature+0xf0f0e0f0>
 234:	0020e1b3          	or	gp,ra,sp
 238:	fff10eb7          	lui	t4,0xfff10
 23c:	ff0e8e93          	addi	t4,t4,-16 # fff0fff0 <begin_signature+0xfff0eff0>
 240:	00300e13          	li	t3,3
 244:	49d19263          	bne	gp,t4,6c8 <fail>

00000248 <test_4>:
 248:	00ff00b7          	lui	ra,0xff0
 24c:	0ff08093          	addi	ra,ra,255 # ff00ff <begin_signature+0xfef0ff>
 250:	0f0f1137          	lui	sp,0xf0f1
 254:	f0f10113          	addi	sp,sp,-241 # f0f0f0f <begin_signature+0xf0eff0f>
 258:	0020e1b3          	or	gp,ra,sp
 25c:	0fff1eb7          	lui	t4,0xfff1
 260:	fffe8e93          	addi	t4,t4,-1 # fff0fff <begin_signature+0xffeffff>
 264:	00400e13          	li	t3,4
 268:	47d19063          	bne	gp,t4,6c8 <fail>

0000026c <test_5>:
 26c:	f00ff0b7          	lui	ra,0xf00ff
 270:	00f08093          	addi	ra,ra,15 # f00ff00f <begin_signature+0xf00fe00f>
 274:	f0f0f137          	lui	sp,0xf0f0f
 278:	0f010113          	addi	sp,sp,240 # f0f0f0f0 <begin_signature+0xf0f0e0f0>
 27c:	0020e1b3          	or	gp,ra,sp
 280:	f0fffeb7          	lui	t4,0xf0fff
 284:	0ffe8e93          	addi	t4,t4,255 # f0fff0ff <begin_signature+0xf0ffe0ff>
 288:	00500e13          	li	t3,5
 28c:	43d19e63          	bne	gp,t4,6c8 <fail>

00000290 <test_6>:
 290:	ff0100b7          	lui	ra,0xff010
 294:	f0008093          	addi	ra,ra,-256 # ff00ff00 <begin_signature+0xff00ef00>
 298:	0f0f1137          	lui	sp,0xf0f1
 29c:	f0f10113          	addi	sp,sp,-241 # f0f0f0f <begin_signature+0xf0eff0f>
 2a0:	0020e0b3          	or	ra,ra,sp
 2a4:	ff100eb7          	lui	t4,0xff100
 2a8:	f0fe8e93          	addi	t4,t4,-241 # ff0fff0f <begin_signature+0xff0fef0f>
 2ac:	00600e13          	li	t3,6
 2b0:	41d09c63          	bne	ra,t4,6c8 <fail>

000002b4 <test_7>:
 2b4:	ff0100b7          	lui	ra,0xff010
 2b8:	f0008093          	addi	ra,ra,-256 # ff00ff00 <begin_signature+0xff00ef00>
 2bc:	0f0f1137          	lui	sp,0xf0f1
 2c0:	f0f10113          	addi	sp,sp,-241 # f0f0f0f <begin_signature+0xf0eff0f>
 2c4:	0020e133          	or	sp,ra,sp
 2c8:	ff100eb7          	lui	t4,0xff100
 2cc:	f0fe8e93          	addi	t4,t4,-241 # ff0fff0f <begin_signature+0xff0fef0f>
 2d0:	00700e13          	li	t3,7
 2d4:	3fd11a63          	bne	sp,t4,6c8 <fail>

000002d8 <test_8>:
 2d8:	ff0100b7          	lui	ra,0xff010
 2dc:	f0008093          	addi	ra,ra,-256 # ff00ff00 <begin_signature+0xff00ef00>
 2e0:	0010e0b3          	or	ra,ra,ra
 2e4:	ff010eb7          	lui	t4,0xff010
 2e8:	f00e8e93          	addi	t4,t4,-256 # ff00ff00 <begin_signature+0xff00ef00>
 2ec:	00800e13          	li	t3,8
 2f0:	3dd09c63          	bne	ra,t4,6c8 <fail>

000002f4 <test_9>:
 2f4:	00000213          	li	tp,0
 2f8:	ff0100b7          	lui	ra,0xff010
 2fc:	f0008093          	addi	ra,ra,-256 # ff00ff00 <begin_signature+0xff00ef00>
 300:	0f0f1137          	lui	sp,0xf0f1
 304:	f0f10113          	addi	sp,sp,-241 # f0f0f0f <begin_signature+0xf0eff0f>
 308:	0020e1b3          	or	gp,ra,sp
 30c:	00018313          	mv	t1,gp
 310:	00120213          	addi	tp,tp,1 # 1 <_start-0x1ff>
 314:	00200293          	li	t0,2
 318:	fe5210e3          	bne	tp,t0,2f8 <test_9+0x4>
 31c:	ff100eb7          	lui	t4,0xff100
 320:	f0fe8e93          	addi	t4,t4,-241 # ff0fff0f <begin_signature+0xff0fef0f>
 324:	00900e13          	li	t3,9
 328:	3bd31063          	bne	t1,t4,6c8 <fail>

0000032c <test_10>:
 32c:	00000213          	li	tp,0
 330:	0ff010b7          	lui	ra,0xff01
 334:	ff008093          	addi	ra,ra,-16 # ff00ff0 <begin_signature+0xfeffff0>
 338:	f0f0f137          	lui	sp,0xf0f0f
 33c:	0f010113          	addi	sp,sp,240 # f0f0f0f0 <begin_signature+0xf0f0e0f0>
 340:	0020e1b3          	or	gp,ra,sp
 344:	00000013          	nop
 348:	00018313          	mv	t1,gp
 34c:	00120213          	addi	tp,tp,1 # 1 <_start-0x1ff>
 350:	00200293          	li	t0,2
 354:	fc521ee3          	bne	tp,t0,330 <test_10+0x4>
 358:	fff10eb7          	lui	t4,0xfff10
 35c:	ff0e8e93          	addi	t4,t4,-16 # fff0fff0 <begin_signature+0xfff0eff0>
 360:	00a00e13          	li	t3,10
 364:	37d31263          	bne	t1,t4,6c8 <fail>

00000368 <test_11>:
 368:	00000213          	li	tp,0
 36c:	00ff00b7          	lui	ra,0xff0
 370:	0ff08093          	addi	ra,ra,255 # ff00ff <begin_signature+0xfef0ff>
 374:	0f0f1137          	lui	sp,0xf0f1
 378:	f0f10113          	addi	sp,sp,-241 # f0f0f0f <begin_signature+0xf0eff0f>
 37c:	0020e1b3          	or	gp,ra,sp
 380:	00000013          	nop
 384:	00000013          	nop
 388:	00018313          	mv	t1,gp
 38c:	00120213          	addi	tp,tp,1 # 1 <_start-0x1ff>
 390:	00200293          	li	t0,2
 394:	fc521ce3          	bne	tp,t0,36c <test_11+0x4>
 398:	0fff1eb7          	lui	t4,0xfff1
 39c:	fffe8e93          	addi	t4,t4,-1 # fff0fff <begin_signature+0xffeffff>
 3a0:	00b00e13          	li	t3,11
 3a4:	33d31263          	bne	t1,t4,6c8 <fail>

000003a8 <test_12>:
 3a8:	00000213          	li	tp,0
 3ac:	ff0100b7          	lui	ra,0xff010
 3b0:	f0008093          	addi	ra,ra,-256 # ff00ff00 <begin_signature+0xff00ef00>
 3b4:	0f0f1137          	lui	sp,0xf0f1
 3b8:	f0f10113          	addi	sp,sp,-241 # f0f0f0f <begin_signature+0xf0eff0f>
 3bc:	0020e1b3          	or	gp,ra,sp
 3c0:	00120213          	addi	tp,tp,1 # 1 <_start-0x1ff>
 3c4:	00200293          	li	t0,2
 3c8:	fe5212e3          	bne	tp,t0,3ac <test_12+0x4>
 3cc:	ff100eb7          	lui	t4,0xff100
 3d0:	f0fe8e93          	addi	t4,t4,-241 # ff0fff0f <begin_signature+0xff0fef0f>
 3d4:	00c00e13          	li	t3,12
 3d8:	2fd19863          	bne	gp,t4,6c8 <fail>

000003dc <test_13>:
 3dc:	00000213          	li	tp,0
 3e0:	0ff010b7          	lui	ra,0xff01
 3e4:	ff008093          	addi	ra,ra,-16 # ff00ff0 <begin_signature+0xfeffff0>
 3e8:	f0f0f137          	lui	sp,0xf0f0f
 3ec:	0f010113          	addi	sp,sp,240 # f0f0f0f0 <begin_signature+0xf0f0e0f0>
 3f0:	00000013          	nop
 3f4:	0020e1b3          	or	gp,ra,sp
 3f8:	00120213          	addi	tp,tp,1 # 1 <_start-0x1ff>
 3fc:	00200293          	li	t0,2
 400:	fe5210e3          	bne	tp,t0,3e0 <test_13+0x4>
 404:	fff10eb7          	lui	t4,0xfff10
 408:	ff0e8e93          	addi	t4,t4,-16 # fff0fff0 <begin_signature+0xfff0eff0>
 40c:	00d00e13          	li	t3,13
 410:	2bd19c63          	bne	gp,t4,6c8 <fail>

00000414 <test_14>:
 414:	00000213          	li	tp,0
 418:	00ff00b7          	lui	ra,0xff0
 41c:	0ff08093          	addi	ra,ra,255 # ff00ff <begin_signature+0xfef0ff>
 420:	0f0f1137          	lui	sp,0xf0f1
 424:	f0f10113          	addi	sp,sp,-241 # f0f0f0f <begin_signature+0xf0eff0f>
 428:	00000013          	nop
 42c:	00000013          	nop
 430:	0020e1b3          	or	gp,ra,sp
 434:	00120213          	addi	tp,tp,1 # 1 <_start-0x1ff>
 438:	00200293          	li	t0,2
 43c:	fc521ee3          	bne	tp,t0,418 <test_14+0x4>
 440:	0fff1eb7          	lui	t4,0xfff1
 444:	fffe8e93          	addi	t4,t4,-1 # fff0fff <begin_signature+0xffeffff>
 448:	00e00e13          	li	t3,14
 44c:	27d19e63          	bne	gp,t4,6c8 <fail>

00000450 <test_15>:
 450:	00000213          	li	tp,0
 454:	ff0100b7          	lui	ra,0xff010
 458:	f0008093          	addi	ra,ra,-256 # ff00ff00 <begin_signature+0xff00ef00>
 45c:	00000013          	nop
 460:	0f0f1137          	lui	sp,0xf0f1
 464:	f0f10113          	addi	sp,sp,-241 # f0f0f0f <begin_signature+0xf0eff0f>
 468:	0020e1b3          	or	gp,ra,sp
 46c:	00120213          	addi	tp,tp,1 # 1 <_start-0x1ff>
 470:	00200293          	li	t0,2
 474:	fe5210e3          	bne	tp,t0,454 <test_15+0x4>
 478:	ff100eb7          	lui	t4,0xff100
 47c:	f0fe8e93          	addi	t4,t4,-241 # ff0fff0f <begin_signature+0xff0fef0f>
 480:	00f00e13          	li	t3,15
 484:	25d19263          	bne	gp,t4,6c8 <fail>

00000488 <test_16>:
 488:	00000213          	li	tp,0
 48c:	0ff010b7          	lui	ra,0xff01
 490:	ff008093          	addi	ra,ra,-16 # ff00ff0 <begin_signature+0xfeffff0>
 494:	00000013          	nop
 498:	f0f0f137          	lui	sp,0xf0f0f
 49c:	0f010113          	addi	sp,sp,240 # f0f0f0f0 <begin_signature+0xf0f0e0f0>
 4a0:	00000013          	nop
 4a4:	0020e1b3          	or	gp,ra,sp
 4a8:	00120213          	addi	tp,tp,1 # 1 <_start-0x1ff>
 4ac:	00200293          	li	t0,2
 4b0:	fc521ee3          	bne	tp,t0,48c <test_16+0x4>
 4b4:	fff10eb7          	lui	t4,0xfff10
 4b8:	ff0e8e93          	addi	t4,t4,-16 # fff0fff0 <begin_signature+0xfff0eff0>
 4bc:	01000e13          	li	t3,16
 4c0:	21d19463          	bne	gp,t4,6c8 <fail>

000004c4 <test_17>:
 4c4:	00000213          	li	tp,0
 4c8:	00ff00b7          	lui	ra,0xff0
 4cc:	0ff08093          	addi	ra,ra,255 # ff00ff <begin_signature+0xfef0ff>
 4d0:	00000013          	nop
 4d4:	00000013          	nop
 4d8:	0f0f1137          	lui	sp,0xf0f1
 4dc:	f0f10113          	addi	sp,sp,-241 # f0f0f0f <begin_signature+0xf0eff0f>
 4e0:	0020e1b3          	or	gp,ra,sp
 4e4:	00120213          	addi	tp,tp,1 # 1 <_start-0x1ff>
 4e8:	00200293          	li	t0,2
 4ec:	fc521ee3          	bne	tp,t0,4c8 <test_17+0x4>
 4f0:	0fff1eb7          	lui	t4,0xfff1
 4f4:	fffe8e93          	addi	t4,t4,-1 # fff0fff <begin_signature+0xffeffff>
 4f8:	01100e13          	li	t3,17
 4fc:	1dd19663          	bne	gp,t4,6c8 <fail>

00000500 <test_18>:
 500:	00000213          	li	tp,0
 504:	0f0f1137          	lui	sp,0xf0f1
 508:	f0f10113          	addi	sp,sp,-241 # f0f0f0f <begin_signature+0xf0eff0f>
 50c:	ff0100b7          	lui	ra,0xff010
 510:	f0008093          	addi	ra,ra,-256 # ff00ff00 <begin_signature+0xff00ef00>
 514:	0020e1b3          	or	gp,ra,sp
 518:	00120213          	addi	tp,tp,1 # 1 <_start-0x1ff>
 51c:	00200293          	li	t0,2
 520:	fe5212e3          	bne	tp,t0,504 <test_18+0x4>
 524:	ff100eb7          	lui	t4,0xff100
 528:	f0fe8e93          	addi	t4,t4,-241 # ff0fff0f <begin_signature+0xff0fef0f>
 52c:	01200e13          	li	t3,18
 530:	19d19c63          	bne	gp,t4,6c8 <fail>

00000534 <test_19>:
 534:	00000213          	li	tp,0
 538:	f0f0f137          	lui	sp,0xf0f0f
 53c:	0f010113          	addi	sp,sp,240 # f0f0f0f0 <begin_signature+0xf0f0e0f0>
 540:	0ff010b7          	lui	ra,0xff01
 544:	ff008093          	addi	ra,ra,-16 # ff00ff0 <begin_signature+0xfeffff0>
 548:	00000013          	nop
 54c:	0020e1b3          	or	gp,ra,sp
 550:	00120213          	addi	tp,tp,1 # 1 <_start-0x1ff>
 554:	00200293          	li	t0,2
 558:	fe5210e3          	bne	tp,t0,538 <test_19+0x4>
 55c:	fff10eb7          	lui	t4,0xfff10
 560:	ff0e8e93          	addi	t4,t4,-16 # fff0fff0 <begin_signature+0xfff0eff0>
 564:	01300e13          	li	t3,19
 568:	17d19063          	bne	gp,t4,6c8 <fail>

0000056c <test_20>:
 56c:	00000213          	li	tp,0
 570:	0f0f1137          	lui	sp,0xf0f1
 574:	f0f10113          	addi	sp,sp,-241 # f0f0f0f <begin_signature+0xf0eff0f>
 578:	00ff00b7          	lui	ra,0xff0
 57c:	0ff08093          	addi	ra,ra,255 # ff00ff <begin_signature+0xfef0ff>
 580:	00000013          	nop
 584:	00000013          	nop
 588:	0020e1b3          	or	gp,ra,sp
 58c:	00120213          	addi	tp,tp,1 # 1 <_start-0x1ff>
 590:	00200293          	li	t0,2
 594:	fc521ee3          	bne	tp,t0,570 <test_20+0x4>
 598:	0fff1eb7          	lui	t4,0xfff1
 59c:	fffe8e93          	addi	t4,t4,-1 # fff0fff <begin_signature+0xffeffff>
 5a0:	01400e13          	li	t3,20
 5a4:	13d19263          	bne	gp,t4,6c8 <fail>

000005a8 <test_21>:
 5a8:	00000213          	li	tp,0
 5ac:	0f0f1137          	lui	sp,0xf0f1
 5b0:	f0f10113          	addi	sp,sp,-241 # f0f0f0f <begin_signature+0xf0eff0f>
 5b4:	00000013          	nop
 5b8:	ff0100b7          	lui	ra,0xff010
 5bc:	f0008093          	addi	ra,ra,-256 # ff00ff00 <begin_signature+0xff00ef00>
 5c0:	0020e1b3          	or	gp,ra,sp
 5c4:	00120213          	addi	tp,tp,1 # 1 <_start-0x1ff>
 5c8:	00200293          	li	t0,2
 5cc:	fe5210e3          	bne	tp,t0,5ac <test_21+0x4>
 5d0:	ff100eb7          	lui	t4,0xff100
 5d4:	f0fe8e93          	addi	t4,t4,-241 # ff0fff0f <begin_signature+0xff0fef0f>
 5d8:	01500e13          	li	t3,21
 5dc:	0fd19663          	bne	gp,t4,6c8 <fail>

000005e0 <test_22>:
 5e0:	00000213          	li	tp,0
 5e4:	f0f0f137          	lui	sp,0xf0f0f
 5e8:	0f010113          	addi	sp,sp,240 # f0f0f0f0 <begin_signature+0xf0f0e0f0>
 5ec:	00000013          	nop
 5f0:	0ff010b7          	lui	ra,0xff01
 5f4:	ff008093          	addi	ra,ra,-16 # ff00ff0 <begin_signature+0xfeffff0>
 5f8:	00000013          	nop
 5fc:	0020e1b3          	or	gp,ra,sp
 600:	00120213          	addi	tp,tp,1 # 1 <_start-0x1ff>
 604:	00200293          	li	t0,2
 608:	fc521ee3          	bne	tp,t0,5e4 <test_22+0x4>
 60c:	fff10eb7          	lui	t4,0xfff10
 610:	ff0e8e93          	addi	t4,t4,-16 # fff0fff0 <begin_signature+0xfff0eff0>
 614:	01600e13          	li	t3,22
 618:	0bd19863          	bne	gp,t4,6c8 <fail>

0000061c <test_23>:
 61c:	00000213          	li	tp,0
 620:	0f0f1137          	lui	sp,0xf0f1
 624:	f0f10113          	addi	sp,sp,-241 # f0f0f0f <begin_signature+0xf0eff0f>
 628:	00000013          	nop
 62c:	00000013          	nop
 630:	00ff00b7          	lui	ra,0xff0
 634:	0ff08093          	addi	ra,ra,255 # ff00ff <begin_signature+0xfef0ff>
 638:	0020e1b3          	or	gp,ra,sp
 63c:	00120213          	addi	tp,tp,1 # 1 <_start-0x1ff>
 640:	00200293          	li	t0,2
 644:	fc521ee3          	bne	tp,t0,620 <test_23+0x4>
 648:	0fff1eb7          	lui	t4,0xfff1
 64c:	fffe8e93          	addi	t4,t4,-1 # fff0fff <begin_signature+0xffeffff>
 650:	01700e13          	li	t3,23
 654:	07d19a63          	bne	gp,t4,6c8 <fail>

00000658 <test_24>:
 658:	ff0100b7          	lui	ra,0xff010
 65c:	f0008093          	addi	ra,ra,-256 # ff00ff00 <begin_signature+0xff00ef00>
 660:	00106133          	or	sp,zero,ra
 664:	ff010eb7          	lui	t4,0xff010
 668:	f00e8e93          	addi	t4,t4,-256 # ff00ff00 <begin_signature+0xff00ef00>
 66c:	01800e13          	li	t3,24
 670:	05d11c63          	bne	sp,t4,6c8 <fail>

00000674 <test_25>:
 674:	00ff00b7          	lui	ra,0xff0
 678:	0ff08093          	addi	ra,ra,255 # ff00ff <begin_signature+0xfef0ff>
 67c:	0000e133          	or	sp,ra,zero
 680:	00ff0eb7          	lui	t4,0xff0
 684:	0ffe8e93          	addi	t4,t4,255 # ff00ff <begin_signature+0xfef0ff>
 688:	01900e13          	li	t3,25
 68c:	03d11e63          	bne	sp,t4,6c8 <fail>

00000690 <test_26>:
 690:	000060b3          	or	ra,zero,zero
 694:	00000e93          	li	t4,0
 698:	01a00e13          	li	t3,26
 69c:	03d09663          	bne	ra,t4,6c8 <fail>

000006a0 <test_27>:
 6a0:	111110b7          	lui	ra,0x11111
 6a4:	11108093          	addi	ra,ra,273 # 11111111 <begin_signature+0x11110111>
 6a8:	22222137          	lui	sp,0x22222
 6ac:	22210113          	addi	sp,sp,546 # 22222222 <begin_signature+0x22221222>
 6b0:	0020e033          	or	zero,ra,sp
 6b4:	00000e93          	li	t4,0
 6b8:	01b00e13          	li	t3,27
 6bc:	01d01663          	bne	zero,t4,6c8 <fail>
 6c0:	01c01663          	bne	zero,t3,6cc <pass>
 6c4:	00100e13          	li	t3,1

000006c8 <fail>:
 6c8:	00c0006f          	j	6d4 <exit>

000006cc <pass>:
 6cc:	00000e13          	li	t3,0
 6d0:	0040006f          	j	6d4 <exit>

000006d4 <exit>:
 6d4:	c0002573          	rdcycle	a0
 6d8:	c02025f3          	rdinstret	a1
 6dc:	01051613          	slli	a2,a0,0x10
 6e0:	01065613          	srli	a2,a2,0x10
 6e4:	000206b7          	lui	a3,0x20
 6e8:	00d666b3          	or	a3,a2,a3
 6ec:	78069073          	csrw	mtohost,a3
 6f0:	01055613          	srli	a2,a0,0x10
 6f4:	000306b7          	lui	a3,0x30
 6f8:	00d666b3          	or	a3,a2,a3
 6fc:	78069073          	csrw	mtohost,a3
 700:	00010637          	lui	a2,0x10
 704:	00a60613          	addi	a2,a2,10 # 1000a <begin_signature+0xf00a>
 708:	78061073          	csrw	mtohost,a2
 70c:	01059613          	slli	a2,a1,0x10
 710:	01065613          	srli	a2,a2,0x10
 714:	000201b7          	lui	gp,0x20
 718:	003661b3          	or	gp,a2,gp
 71c:	78019073          	csrw	mtohost,gp
 720:	0105d613          	srli	a2,a1,0x10
 724:	000301b7          	lui	gp,0x30
 728:	003661b3          	or	gp,a2,gp
 72c:	78019073          	csrw	mtohost,gp
 730:	00010637          	lui	a2,0x10
 734:	00a60613          	addi	a2,a2,10 # 1000a <begin_signature+0xf00a>
 738:	78061073          	csrw	mtohost,a2
 73c:	780e1073          	csrw	mtohost,t3
 740:	0000006f          	j	740 <exit+0x6c>
