
/home/adam/Documents/lab8/programs/assembly/../build/assembly/bin/ori.riscv:     file format elf32-littleriscv


Disassembly of section .text:

00000200 <_start>:
 200:	ff0100b7          	lui	ra,0xff010
 204:	f0008093          	addi	ra,ra,-256 # ff00ff00 <begin_signature+0xff00ef00>
 208:	f0f0e193          	ori	gp,ra,-241
 20c:	f0f00e93          	li	t4,-241
 210:	00200e13          	li	t3,2
 214:	1dd19663          	bne	gp,t4,3e0 <fail>

00000218 <test_3>:
 218:	0ff010b7          	lui	ra,0xff01
 21c:	ff008093          	addi	ra,ra,-16 # ff00ff0 <begin_signature+0xfeffff0>
 220:	0f00e193          	ori	gp,ra,240
 224:	0ff01eb7          	lui	t4,0xff01
 228:	ff0e8e93          	addi	t4,t4,-16 # ff00ff0 <begin_signature+0xfeffff0>
 22c:	00300e13          	li	t3,3
 230:	1bd19863          	bne	gp,t4,3e0 <fail>

00000234 <test_4>:
 234:	00ff00b7          	lui	ra,0xff0
 238:	0ff08093          	addi	ra,ra,255 # ff00ff <begin_signature+0xfef0ff>
 23c:	70f0e193          	ori	gp,ra,1807
 240:	00ff0eb7          	lui	t4,0xff0
 244:	7ffe8e93          	addi	t4,t4,2047 # ff07ff <begin_signature+0xfef7ff>
 248:	00400e13          	li	t3,4
 24c:	19d19a63          	bne	gp,t4,3e0 <fail>

00000250 <test_5>:
 250:	f00ff0b7          	lui	ra,0xf00ff
 254:	00f08093          	addi	ra,ra,15 # f00ff00f <begin_signature+0xf00fe00f>
 258:	0f00e193          	ori	gp,ra,240
 25c:	f00ffeb7          	lui	t4,0xf00ff
 260:	0ffe8e93          	addi	t4,t4,255 # f00ff0ff <begin_signature+0xf00fe0ff>
 264:	00500e13          	li	t3,5
 268:	17d19c63          	bne	gp,t4,3e0 <fail>

0000026c <test_6>:
 26c:	ff0100b7          	lui	ra,0xff010
 270:	f0008093          	addi	ra,ra,-256 # ff00ff00 <begin_signature+0xff00ef00>
 274:	0f00e093          	ori	ra,ra,240
 278:	ff010eb7          	lui	t4,0xff010
 27c:	ff0e8e93          	addi	t4,t4,-16 # ff00fff0 <begin_signature+0xff00eff0>
 280:	00600e13          	li	t3,6
 284:	15d09e63          	bne	ra,t4,3e0 <fail>

00000288 <test_7>:
 288:	00000213          	li	tp,0
 28c:	0ff010b7          	lui	ra,0xff01
 290:	ff008093          	addi	ra,ra,-16 # ff00ff0 <begin_signature+0xfeffff0>
 294:	0f00e193          	ori	gp,ra,240
 298:	00018313          	mv	t1,gp
 29c:	00120213          	addi	tp,tp,1 # 1 <_start-0x1ff>
 2a0:	00200293          	li	t0,2
 2a4:	fe5214e3          	bne	tp,t0,28c <test_7+0x4>
 2a8:	0ff01eb7          	lui	t4,0xff01
 2ac:	ff0e8e93          	addi	t4,t4,-16 # ff00ff0 <begin_signature+0xfeffff0>
 2b0:	00700e13          	li	t3,7
 2b4:	13d31663          	bne	t1,t4,3e0 <fail>

000002b8 <test_8>:
 2b8:	00000213          	li	tp,0
 2bc:	00ff00b7          	lui	ra,0xff0
 2c0:	0ff08093          	addi	ra,ra,255 # ff00ff <begin_signature+0xfef0ff>
 2c4:	70f0e193          	ori	gp,ra,1807
 2c8:	00000013          	nop
 2cc:	00018313          	mv	t1,gp
 2d0:	00120213          	addi	tp,tp,1 # 1 <_start-0x1ff>
 2d4:	00200293          	li	t0,2
 2d8:	fe5212e3          	bne	tp,t0,2bc <test_8+0x4>
 2dc:	00ff0eb7          	lui	t4,0xff0
 2e0:	7ffe8e93          	addi	t4,t4,2047 # ff07ff <begin_signature+0xfef7ff>
 2e4:	00800e13          	li	t3,8
 2e8:	0fd31c63          	bne	t1,t4,3e0 <fail>

000002ec <test_9>:
 2ec:	00000213          	li	tp,0
 2f0:	f00ff0b7          	lui	ra,0xf00ff
 2f4:	00f08093          	addi	ra,ra,15 # f00ff00f <begin_signature+0xf00fe00f>
 2f8:	0f00e193          	ori	gp,ra,240
 2fc:	00000013          	nop
 300:	00000013          	nop
 304:	00018313          	mv	t1,gp
 308:	00120213          	addi	tp,tp,1 # 1 <_start-0x1ff>
 30c:	00200293          	li	t0,2
 310:	fe5210e3          	bne	tp,t0,2f0 <test_9+0x4>
 314:	f00ffeb7          	lui	t4,0xf00ff
 318:	0ffe8e93          	addi	t4,t4,255 # f00ff0ff <begin_signature+0xf00fe0ff>
 31c:	00900e13          	li	t3,9
 320:	0dd31063          	bne	t1,t4,3e0 <fail>

00000324 <test_10>:
 324:	00000213          	li	tp,0
 328:	0ff010b7          	lui	ra,0xff01
 32c:	ff008093          	addi	ra,ra,-16 # ff00ff0 <begin_signature+0xfeffff0>
 330:	0f00e193          	ori	gp,ra,240
 334:	00120213          	addi	tp,tp,1 # 1 <_start-0x1ff>
 338:	00200293          	li	t0,2
 33c:	fe5216e3          	bne	tp,t0,328 <test_10+0x4>
 340:	0ff01eb7          	lui	t4,0xff01
 344:	ff0e8e93          	addi	t4,t4,-16 # ff00ff0 <begin_signature+0xfeffff0>
 348:	00a00e13          	li	t3,10
 34c:	09d19a63          	bne	gp,t4,3e0 <fail>

00000350 <test_11>:
 350:	00000213          	li	tp,0
 354:	00ff00b7          	lui	ra,0xff0
 358:	0ff08093          	addi	ra,ra,255 # ff00ff <begin_signature+0xfef0ff>
 35c:	00000013          	nop
 360:	f0f0e193          	ori	gp,ra,-241
 364:	00120213          	addi	tp,tp,1 # 1 <_start-0x1ff>
 368:	00200293          	li	t0,2
 36c:	fe5214e3          	bne	tp,t0,354 <test_11+0x4>
 370:	fff00e93          	li	t4,-1
 374:	00b00e13          	li	t3,11
 378:	07d19463          	bne	gp,t4,3e0 <fail>

0000037c <test_12>:
 37c:	00000213          	li	tp,0
 380:	f00ff0b7          	lui	ra,0xf00ff
 384:	00f08093          	addi	ra,ra,15 # f00ff00f <begin_signature+0xf00fe00f>
 388:	00000013          	nop
 38c:	00000013          	nop
 390:	0f00e193          	ori	gp,ra,240
 394:	00120213          	addi	tp,tp,1 # 1 <_start-0x1ff>
 398:	00200293          	li	t0,2
 39c:	fe5212e3          	bne	tp,t0,380 <test_12+0x4>
 3a0:	f00ffeb7          	lui	t4,0xf00ff
 3a4:	0ffe8e93          	addi	t4,t4,255 # f00ff0ff <begin_signature+0xf00fe0ff>
 3a8:	00c00e13          	li	t3,12
 3ac:	03d19a63          	bne	gp,t4,3e0 <fail>

000003b0 <test_13>:
 3b0:	0f006093          	ori	ra,zero,240
 3b4:	0f000e93          	li	t4,240
 3b8:	00d00e13          	li	t3,13
 3bc:	03d09263          	bne	ra,t4,3e0 <fail>

000003c0 <test_14>:
 3c0:	00ff00b7          	lui	ra,0xff0
 3c4:	0ff08093          	addi	ra,ra,255 # ff00ff <begin_signature+0xfef0ff>
 3c8:	70f0e013          	ori	zero,ra,1807
 3cc:	00000e93          	li	t4,0
 3d0:	00e00e13          	li	t3,14
 3d4:	01d01663          	bne	zero,t4,3e0 <fail>
 3d8:	01c01663          	bne	zero,t3,3e4 <pass>
 3dc:	00100e13          	li	t3,1

000003e0 <fail>:
 3e0:	00c0006f          	j	3ec <exit>

000003e4 <pass>:
 3e4:	00000e13          	li	t3,0
 3e8:	0040006f          	j	3ec <exit>

000003ec <exit>:
 3ec:	c0002573          	rdcycle	a0
 3f0:	c02025f3          	rdinstret	a1
 3f4:	01051613          	slli	a2,a0,0x10
 3f8:	01065613          	srli	a2,a2,0x10
 3fc:	000206b7          	lui	a3,0x20
 400:	00d666b3          	or	a3,a2,a3
 404:	78069073          	csrw	mtohost,a3
 408:	01055613          	srli	a2,a0,0x10
 40c:	000306b7          	lui	a3,0x30
 410:	00d666b3          	or	a3,a2,a3
 414:	78069073          	csrw	mtohost,a3
 418:	00010637          	lui	a2,0x10
 41c:	00a60613          	addi	a2,a2,10 # 1000a <begin_signature+0xf00a>
 420:	78061073          	csrw	mtohost,a2
 424:	01059613          	slli	a2,a1,0x10
 428:	01065613          	srli	a2,a2,0x10
 42c:	000201b7          	lui	gp,0x20
 430:	003661b3          	or	gp,a2,gp
 434:	78019073          	csrw	mtohost,gp
 438:	0105d613          	srli	a2,a1,0x10
 43c:	000301b7          	lui	gp,0x30
 440:	003661b3          	or	gp,a2,gp
 444:	78019073          	csrw	mtohost,gp
 448:	00010637          	lui	a2,0x10
 44c:	00a60613          	addi	a2,a2,10 # 1000a <begin_signature+0xf00a>
 450:	78061073          	csrw	mtohost,a2
 454:	780e1073          	csrw	mtohost,t3
 458:	0000006f          	j	458 <exit+0x6c>
 45c:	0000                	.2byte	0x0
 45e:	0000                	.2byte	0x0
 460:	0000                	.2byte	0x0
 462:	0000                	.2byte	0x0
 464:	0000                	.2byte	0x0
 466:	0000                	.2byte	0x0
 468:	0000                	.2byte	0x0
 46a:	0000                	.2byte	0x0
 46c:	0000                	.2byte	0x0
 46e:	0000                	.2byte	0x0
 470:	0000                	.2byte	0x0
 472:	0000                	.2byte	0x0
 474:	0000                	.2byte	0x0
 476:	0000                	.2byte	0x0
 478:	0000                	.2byte	0x0
 47a:	0000                	.2byte	0x0
 47c:	0000                	.2byte	0x0
 47e:	0000                	.2byte	0x0
 480:	0000                	.2byte	0x0
 482:	0000                	.2byte	0x0
