
/home/adam/Documents/lab8/programs/assembly/../build/assembly/bin/slti.riscv:     file format elf32-littleriscv


Disassembly of section .text:

00000200 <_start>:
 200:	00000093          	li	ra,0
 204:	0000a193          	slti	gp,ra,0
 208:	00000e93          	li	t4,0
 20c:	00200e13          	li	t3,2
 210:	27d19463          	bne	gp,t4,478 <fail>

00000214 <test_3>:
 214:	00100093          	li	ra,1
 218:	0010a193          	slti	gp,ra,1
 21c:	00000e93          	li	t4,0
 220:	00300e13          	li	t3,3
 224:	25d19a63          	bne	gp,t4,478 <fail>

00000228 <test_4>:
 228:	00300093          	li	ra,3
 22c:	0070a193          	slti	gp,ra,7
 230:	00100e93          	li	t4,1
 234:	00400e13          	li	t3,4
 238:	25d19063          	bne	gp,t4,478 <fail>

0000023c <test_5>:
 23c:	00700093          	li	ra,7
 240:	0030a193          	slti	gp,ra,3
 244:	00000e93          	li	t4,0
 248:	00500e13          	li	t3,5
 24c:	23d19663          	bne	gp,t4,478 <fail>

00000250 <test_6>:
 250:	00000093          	li	ra,0
 254:	8000a193          	slti	gp,ra,-2048
 258:	00000e93          	li	t4,0
 25c:	00600e13          	li	t3,6
 260:	21d19c63          	bne	gp,t4,478 <fail>

00000264 <test_7>:
 264:	800000b7          	lui	ra,0x80000
 268:	0000a193          	slti	gp,ra,0
 26c:	00100e93          	li	t4,1
 270:	00700e13          	li	t3,7
 274:	21d19263          	bne	gp,t4,478 <fail>

00000278 <test_8>:
 278:	800000b7          	lui	ra,0x80000
 27c:	8000a193          	slti	gp,ra,-2048
 280:	00100e93          	li	t4,1
 284:	00800e13          	li	t3,8
 288:	1fd19863          	bne	gp,t4,478 <fail>

0000028c <test_9>:
 28c:	00000093          	li	ra,0
 290:	7ff0a193          	slti	gp,ra,2047
 294:	00100e93          	li	t4,1
 298:	00900e13          	li	t3,9
 29c:	1dd19e63          	bne	gp,t4,478 <fail>

000002a0 <test_10>:
 2a0:	800000b7          	lui	ra,0x80000
 2a4:	fff08093          	addi	ra,ra,-1 # 7fffffff <begin_signature+0x7fffefff>
 2a8:	0000a193          	slti	gp,ra,0
 2ac:	00000e93          	li	t4,0
 2b0:	00a00e13          	li	t3,10
 2b4:	1dd19263          	bne	gp,t4,478 <fail>

000002b8 <test_11>:
 2b8:	800000b7          	lui	ra,0x80000
 2bc:	fff08093          	addi	ra,ra,-1 # 7fffffff <begin_signature+0x7fffefff>
 2c0:	7ff0a193          	slti	gp,ra,2047
 2c4:	00000e93          	li	t4,0
 2c8:	00b00e13          	li	t3,11
 2cc:	1bd19663          	bne	gp,t4,478 <fail>

000002d0 <test_12>:
 2d0:	800000b7          	lui	ra,0x80000
 2d4:	7ff0a193          	slti	gp,ra,2047
 2d8:	00100e93          	li	t4,1
 2dc:	00c00e13          	li	t3,12
 2e0:	19d19c63          	bne	gp,t4,478 <fail>

000002e4 <test_13>:
 2e4:	800000b7          	lui	ra,0x80000
 2e8:	fff08093          	addi	ra,ra,-1 # 7fffffff <begin_signature+0x7fffefff>
 2ec:	8000a193          	slti	gp,ra,-2048
 2f0:	00000e93          	li	t4,0
 2f4:	00d00e13          	li	t3,13
 2f8:	19d19063          	bne	gp,t4,478 <fail>

000002fc <test_14>:
 2fc:	00000093          	li	ra,0
 300:	fff0a193          	slti	gp,ra,-1
 304:	00000e93          	li	t4,0
 308:	00e00e13          	li	t3,14
 30c:	17d19663          	bne	gp,t4,478 <fail>

00000310 <test_15>:
 310:	fff00093          	li	ra,-1
 314:	0010a193          	slti	gp,ra,1
 318:	00100e93          	li	t4,1
 31c:	00f00e13          	li	t3,15
 320:	15d19c63          	bne	gp,t4,478 <fail>

00000324 <test_16>:
 324:	fff00093          	li	ra,-1
 328:	fff0a193          	slti	gp,ra,-1
 32c:	00000e93          	li	t4,0
 330:	01000e13          	li	t3,16
 334:	15d19263          	bne	gp,t4,478 <fail>

00000338 <test_17>:
 338:	00b00093          	li	ra,11
 33c:	00d0b093          	sltiu	ra,ra,13
 340:	00100e93          	li	t4,1
 344:	01100e13          	li	t3,17
 348:	13d09863          	bne	ra,t4,478 <fail>

0000034c <test_18>:
 34c:	00000213          	li	tp,0
 350:	00f00093          	li	ra,15
 354:	00a0a193          	slti	gp,ra,10
 358:	00018313          	mv	t1,gp
 35c:	00120213          	addi	tp,tp,1 # 1 <_start-0x1ff>
 360:	00200293          	li	t0,2
 364:	fe5216e3          	bne	tp,t0,350 <test_18+0x4>
 368:	00000e93          	li	t4,0
 36c:	01200e13          	li	t3,18
 370:	11d31463          	bne	t1,t4,478 <fail>

00000374 <test_19>:
 374:	00000213          	li	tp,0
 378:	00a00093          	li	ra,10
 37c:	0100a193          	slti	gp,ra,16
 380:	00000013          	nop
 384:	00018313          	mv	t1,gp
 388:	00120213          	addi	tp,tp,1 # 1 <_start-0x1ff>
 38c:	00200293          	li	t0,2
 390:	fe5214e3          	bne	tp,t0,378 <test_19+0x4>
 394:	00100e93          	li	t4,1
 398:	01300e13          	li	t3,19
 39c:	0dd31e63          	bne	t1,t4,478 <fail>

000003a0 <test_20>:
 3a0:	00000213          	li	tp,0
 3a4:	01000093          	li	ra,16
 3a8:	0090a193          	slti	gp,ra,9
 3ac:	00000013          	nop
 3b0:	00000013          	nop
 3b4:	00018313          	mv	t1,gp
 3b8:	00120213          	addi	tp,tp,1 # 1 <_start-0x1ff>
 3bc:	00200293          	li	t0,2
 3c0:	fe5212e3          	bne	tp,t0,3a4 <test_20+0x4>
 3c4:	00000e93          	li	t4,0
 3c8:	01400e13          	li	t3,20
 3cc:	0bd31663          	bne	t1,t4,478 <fail>

000003d0 <test_21>:
 3d0:	00000213          	li	tp,0
 3d4:	00b00093          	li	ra,11
 3d8:	00f0a193          	slti	gp,ra,15
 3dc:	00120213          	addi	tp,tp,1 # 1 <_start-0x1ff>
 3e0:	00200293          	li	t0,2
 3e4:	fe5218e3          	bne	tp,t0,3d4 <test_21+0x4>
 3e8:	00100e93          	li	t4,1
 3ec:	01500e13          	li	t3,21
 3f0:	09d19463          	bne	gp,t4,478 <fail>

000003f4 <test_22>:
 3f4:	00000213          	li	tp,0
 3f8:	01100093          	li	ra,17
 3fc:	00000013          	nop
 400:	0080a193          	slti	gp,ra,8
 404:	00120213          	addi	tp,tp,1 # 1 <_start-0x1ff>
 408:	00200293          	li	t0,2
 40c:	fe5216e3          	bne	tp,t0,3f8 <test_22+0x4>
 410:	00000e93          	li	t4,0
 414:	01600e13          	li	t3,22
 418:	07d19063          	bne	gp,t4,478 <fail>

0000041c <test_23>:
 41c:	00000213          	li	tp,0
 420:	00c00093          	li	ra,12
 424:	00000013          	nop
 428:	00000013          	nop
 42c:	00e0a193          	slti	gp,ra,14
 430:	00120213          	addi	tp,tp,1 # 1 <_start-0x1ff>
 434:	00200293          	li	t0,2
 438:	fe5214e3          	bne	tp,t0,420 <test_23+0x4>
 43c:	00100e93          	li	t4,1
 440:	01700e13          	li	t3,23
 444:	03d19a63          	bne	gp,t4,478 <fail>

00000448 <test_24>:
 448:	fff02093          	slti	ra,zero,-1
 44c:	00000e93          	li	t4,0
 450:	01800e13          	li	t3,24
 454:	03d09263          	bne	ra,t4,478 <fail>

00000458 <test_25>:
 458:	00ff00b7          	lui	ra,0xff0
 45c:	0ff08093          	addi	ra,ra,255 # ff00ff <begin_signature+0xfef0ff>
 460:	fff0a013          	slti	zero,ra,-1
 464:	00000e93          	li	t4,0
 468:	01900e13          	li	t3,25
 46c:	01d01663          	bne	zero,t4,478 <fail>
 470:	01c01663          	bne	zero,t3,47c <pass>
 474:	00100e13          	li	t3,1

00000478 <fail>:
 478:	00c0006f          	j	484 <exit>

0000047c <pass>:
 47c:	00000e13          	li	t3,0
 480:	0040006f          	j	484 <exit>

00000484 <exit>:
 484:	c0002573          	rdcycle	a0
 488:	c02025f3          	rdinstret	a1
 48c:	01051613          	slli	a2,a0,0x10
 490:	01065613          	srli	a2,a2,0x10
 494:	000206b7          	lui	a3,0x20
 498:	00d666b3          	or	a3,a2,a3
 49c:	78069073          	csrw	mtohost,a3
 4a0:	01055613          	srli	a2,a0,0x10
 4a4:	000306b7          	lui	a3,0x30
 4a8:	00d666b3          	or	a3,a2,a3
 4ac:	78069073          	csrw	mtohost,a3
 4b0:	00010637          	lui	a2,0x10
 4b4:	00a60613          	addi	a2,a2,10 # 1000a <begin_signature+0xf00a>
 4b8:	78061073          	csrw	mtohost,a2
 4bc:	01059613          	slli	a2,a1,0x10
 4c0:	01065613          	srli	a2,a2,0x10
 4c4:	000201b7          	lui	gp,0x20
 4c8:	003661b3          	or	gp,a2,gp
 4cc:	78019073          	csrw	mtohost,gp
 4d0:	0105d613          	srli	a2,a1,0x10
 4d4:	000301b7          	lui	gp,0x30
 4d8:	003661b3          	or	gp,a2,gp
 4dc:	78019073          	csrw	mtohost,gp
 4e0:	00010637          	lui	a2,0x10
 4e4:	00a60613          	addi	a2,a2,10 # 1000a <begin_signature+0xf00a>
 4e8:	78061073          	csrw	mtohost,a2
 4ec:	780e1073          	csrw	mtohost,t3
 4f0:	0000006f          	j	4f0 <exit+0x6c>
 4f4:	0000                	.2byte	0x0
 4f6:	0000                	.2byte	0x0
 4f8:	0000                	.2byte	0x0
 4fa:	0000                	.2byte	0x0
 4fc:	0000                	.2byte	0x0
 4fe:	0000                	.2byte	0x0
 500:	0000                	.2byte	0x0
 502:	0000                	.2byte	0x0
