
/home/adam/Documents/lab8/programs/assembly/../build/assembly/bin/srli.riscv:     file format elf32-littleriscv


Disassembly of section .text:

00000200 <_start>:
 200:	ffff80b7          	lui	ra,0xffff8
 204:	0000d193          	srli	gp,ra,0x0
 208:	ffff8eb7          	lui	t4,0xffff8
 20c:	00200e13          	li	t3,2
 210:	2bd19463          	bne	gp,t4,4b8 <fail>

00000214 <test_3>:
 214:	ffff80b7          	lui	ra,0xffff8
 218:	0010d193          	srli	gp,ra,0x1
 21c:	7fffceb7          	lui	t4,0x7fffc
 220:	00300e13          	li	t3,3
 224:	29d19a63          	bne	gp,t4,4b8 <fail>

00000228 <test_4>:
 228:	ffff80b7          	lui	ra,0xffff8
 22c:	0070d193          	srli	gp,ra,0x7
 230:	02000eb7          	lui	t4,0x2000
 234:	f00e8e93          	addi	t4,t4,-256 # 1ffff00 <begin_signature+0x1ffef00>
 238:	00400e13          	li	t3,4
 23c:	27d19e63          	bne	gp,t4,4b8 <fail>

00000240 <test_5>:
 240:	ffff80b7          	lui	ra,0xffff8
 244:	00e0d193          	srli	gp,ra,0xe
 248:	00040eb7          	lui	t4,0x40
 24c:	ffee8e93          	addi	t4,t4,-2 # 3fffe <begin_signature+0x3effe>
 250:	00500e13          	li	t3,5
 254:	27d19263          	bne	gp,t4,4b8 <fail>

00000258 <test_6>:
 258:	ffff80b7          	lui	ra,0xffff8
 25c:	00108093          	addi	ra,ra,1 # ffff8001 <begin_signature+0xffff7001>
 260:	00f0d193          	srli	gp,ra,0xf
 264:	00020eb7          	lui	t4,0x20
 268:	fffe8e93          	addi	t4,t4,-1 # 1ffff <begin_signature+0x1efff>
 26c:	00600e13          	li	t3,6
 270:	25d19463          	bne	gp,t4,4b8 <fail>

00000274 <test_7>:
 274:	fff00093          	li	ra,-1
 278:	0000d193          	srli	gp,ra,0x0
 27c:	fff00e93          	li	t4,-1
 280:	00700e13          	li	t3,7
 284:	23d19a63          	bne	gp,t4,4b8 <fail>

00000288 <test_8>:
 288:	fff00093          	li	ra,-1
 28c:	0010d193          	srli	gp,ra,0x1
 290:	80000eb7          	lui	t4,0x80000
 294:	fffe8e93          	addi	t4,t4,-1 # 7fffffff <begin_signature+0x7fffefff>
 298:	00800e13          	li	t3,8
 29c:	21d19e63          	bne	gp,t4,4b8 <fail>

000002a0 <test_9>:
 2a0:	fff00093          	li	ra,-1
 2a4:	0070d193          	srli	gp,ra,0x7
 2a8:	02000eb7          	lui	t4,0x2000
 2ac:	fffe8e93          	addi	t4,t4,-1 # 1ffffff <begin_signature+0x1ffefff>
 2b0:	00900e13          	li	t3,9
 2b4:	21d19263          	bne	gp,t4,4b8 <fail>

000002b8 <test_10>:
 2b8:	fff00093          	li	ra,-1
 2bc:	00e0d193          	srli	gp,ra,0xe
 2c0:	00040eb7          	lui	t4,0x40
 2c4:	fffe8e93          	addi	t4,t4,-1 # 3ffff <begin_signature+0x3efff>
 2c8:	00a00e13          	li	t3,10
 2cc:	1fd19663          	bne	gp,t4,4b8 <fail>

000002d0 <test_11>:
 2d0:	fff00093          	li	ra,-1
 2d4:	01f0d193          	srli	gp,ra,0x1f
 2d8:	00100e93          	li	t4,1
 2dc:	00b00e13          	li	t3,11
 2e0:	1dd19c63          	bne	gp,t4,4b8 <fail>

000002e4 <test_12>:
 2e4:	212120b7          	lui	ra,0x21212
 2e8:	12108093          	addi	ra,ra,289 # 21212121 <begin_signature+0x21211121>
 2ec:	0000d193          	srli	gp,ra,0x0
 2f0:	21212eb7          	lui	t4,0x21212
 2f4:	121e8e93          	addi	t4,t4,289 # 21212121 <begin_signature+0x21211121>
 2f8:	00c00e13          	li	t3,12
 2fc:	1bd19e63          	bne	gp,t4,4b8 <fail>

00000300 <test_13>:
 300:	212120b7          	lui	ra,0x21212
 304:	12108093          	addi	ra,ra,289 # 21212121 <begin_signature+0x21211121>
 308:	0010d193          	srli	gp,ra,0x1
 30c:	10909eb7          	lui	t4,0x10909
 310:	090e8e93          	addi	t4,t4,144 # 10909090 <begin_signature+0x10908090>
 314:	00d00e13          	li	t3,13
 318:	1bd19063          	bne	gp,t4,4b8 <fail>

0000031c <test_14>:
 31c:	212120b7          	lui	ra,0x21212
 320:	12108093          	addi	ra,ra,289 # 21212121 <begin_signature+0x21211121>
 324:	0070d193          	srli	gp,ra,0x7
 328:	00424eb7          	lui	t4,0x424
 32c:	242e8e93          	addi	t4,t4,578 # 424242 <begin_signature+0x423242>
 330:	00e00e13          	li	t3,14
 334:	19d19263          	bne	gp,t4,4b8 <fail>

00000338 <test_15>:
 338:	212120b7          	lui	ra,0x21212
 33c:	12108093          	addi	ra,ra,289 # 21212121 <begin_signature+0x21211121>
 340:	00e0d193          	srli	gp,ra,0xe
 344:	00008eb7          	lui	t4,0x8
 348:	484e8e93          	addi	t4,t4,1156 # 8484 <begin_signature+0x7484>
 34c:	00f00e13          	li	t3,15
 350:	17d19463          	bne	gp,t4,4b8 <fail>

00000354 <test_16>:
 354:	212120b7          	lui	ra,0x21212
 358:	12108093          	addi	ra,ra,289 # 21212121 <begin_signature+0x21211121>
 35c:	01f0d193          	srli	gp,ra,0x1f
 360:	00000e93          	li	t4,0
 364:	01000e13          	li	t3,16
 368:	15d19863          	bne	gp,t4,4b8 <fail>

0000036c <test_21>:
 36c:	ffff80b7          	lui	ra,0xffff8
 370:	0010d093          	srli	ra,ra,0x1
 374:	7fffceb7          	lui	t4,0x7fffc
 378:	01500e13          	li	t3,21
 37c:	13d09e63          	bne	ra,t4,4b8 <fail>

00000380 <test_22>:
 380:	00000213          	li	tp,0
 384:	ffff80b7          	lui	ra,0xffff8
 388:	0010d193          	srli	gp,ra,0x1
 38c:	00018313          	mv	t1,gp
 390:	00120213          	addi	tp,tp,1 # 1 <_start-0x1ff>
 394:	00200293          	li	t0,2
 398:	fe5216e3          	bne	tp,t0,384 <test_22+0x4>
 39c:	7fffceb7          	lui	t4,0x7fffc
 3a0:	01600e13          	li	t3,22
 3a4:	11d31a63          	bne	t1,t4,4b8 <fail>

000003a8 <test_23>:
 3a8:	00000213          	li	tp,0
 3ac:	ffff80b7          	lui	ra,0xffff8
 3b0:	00e0d193          	srli	gp,ra,0xe
 3b4:	00000013          	nop
 3b8:	00018313          	mv	t1,gp
 3bc:	00120213          	addi	tp,tp,1 # 1 <_start-0x1ff>
 3c0:	00200293          	li	t0,2
 3c4:	fe5214e3          	bne	tp,t0,3ac <test_23+0x4>
 3c8:	00040eb7          	lui	t4,0x40
 3cc:	ffee8e93          	addi	t4,t4,-2 # 3fffe <begin_signature+0x3effe>
 3d0:	01700e13          	li	t3,23
 3d4:	0fd31263          	bne	t1,t4,4b8 <fail>

000003d8 <test_24>:
 3d8:	00000213          	li	tp,0
 3dc:	ffff80b7          	lui	ra,0xffff8
 3e0:	00f0d193          	srli	gp,ra,0xf
 3e4:	00000013          	nop
 3e8:	00000013          	nop
 3ec:	00018313          	mv	t1,gp
 3f0:	00120213          	addi	tp,tp,1 # 1 <_start-0x1ff>
 3f4:	00200293          	li	t0,2
 3f8:	fe5212e3          	bne	tp,t0,3dc <test_24+0x4>
 3fc:	00020eb7          	lui	t4,0x20
 400:	fffe8e93          	addi	t4,t4,-1 # 1ffff <begin_signature+0x1efff>
 404:	01800e13          	li	t3,24
 408:	0bd31863          	bne	t1,t4,4b8 <fail>

0000040c <test_25>:
 40c:	00000213          	li	tp,0
 410:	ffff80b7          	lui	ra,0xffff8
 414:	0010d193          	srli	gp,ra,0x1
 418:	00120213          	addi	tp,tp,1 # 1 <_start-0x1ff>
 41c:	00200293          	li	t0,2
 420:	fe5218e3          	bne	tp,t0,410 <test_25+0x4>
 424:	7fffceb7          	lui	t4,0x7fffc
 428:	01900e13          	li	t3,25
 42c:	09d19663          	bne	gp,t4,4b8 <fail>

00000430 <test_26>:
 430:	00000213          	li	tp,0
 434:	ffff80b7          	lui	ra,0xffff8
 438:	00000013          	nop
 43c:	00e0d193          	srli	gp,ra,0xe
 440:	00120213          	addi	tp,tp,1 # 1 <_start-0x1ff>
 444:	00200293          	li	t0,2
 448:	fe5216e3          	bne	tp,t0,434 <test_26+0x4>
 44c:	00040eb7          	lui	t4,0x40
 450:	ffee8e93          	addi	t4,t4,-2 # 3fffe <begin_signature+0x3effe>
 454:	01a00e13          	li	t3,26
 458:	07d19063          	bne	gp,t4,4b8 <fail>

0000045c <test_27>:
 45c:	00000213          	li	tp,0
 460:	ffff80b7          	lui	ra,0xffff8
 464:	00000013          	nop
 468:	00000013          	nop
 46c:	00f0d193          	srli	gp,ra,0xf
 470:	00120213          	addi	tp,tp,1 # 1 <_start-0x1ff>
 474:	00200293          	li	t0,2
 478:	fe5214e3          	bne	tp,t0,460 <test_27+0x4>
 47c:	00020eb7          	lui	t4,0x20
 480:	fffe8e93          	addi	t4,t4,-1 # 1ffff <begin_signature+0x1efff>
 484:	01b00e13          	li	t3,27
 488:	03d19863          	bne	gp,t4,4b8 <fail>

0000048c <test_28>:
 48c:	01f05093          	srli	ra,zero,0x1f
 490:	00000e93          	li	t4,0
 494:	01c00e13          	li	t3,28
 498:	03d09063          	bne	ra,t4,4b8 <fail>

0000049c <test_29>:
 49c:	02100093          	li	ra,33
 4a0:	0140d013          	srli	zero,ra,0x14
 4a4:	00000e93          	li	t4,0
 4a8:	01d00e13          	li	t3,29
 4ac:	01d01663          	bne	zero,t4,4b8 <fail>
 4b0:	01c01663          	bne	zero,t3,4bc <pass>
 4b4:	00100e13          	li	t3,1

000004b8 <fail>:
 4b8:	00c0006f          	j	4c4 <exit>

000004bc <pass>:
 4bc:	00000e13          	li	t3,0
 4c0:	0040006f          	j	4c4 <exit>

000004c4 <exit>:
 4c4:	c0002573          	rdcycle	a0
 4c8:	c02025f3          	rdinstret	a1
 4cc:	01051613          	slli	a2,a0,0x10
 4d0:	01065613          	srli	a2,a2,0x10
 4d4:	000206b7          	lui	a3,0x20
 4d8:	00d666b3          	or	a3,a2,a3
 4dc:	78069073          	csrw	mtohost,a3
 4e0:	01055613          	srli	a2,a0,0x10
 4e4:	000306b7          	lui	a3,0x30
 4e8:	00d666b3          	or	a3,a2,a3
 4ec:	78069073          	csrw	mtohost,a3
 4f0:	00010637          	lui	a2,0x10
 4f4:	00a60613          	addi	a2,a2,10 # 1000a <begin_signature+0xf00a>
 4f8:	78061073          	csrw	mtohost,a2
 4fc:	01059613          	slli	a2,a1,0x10
 500:	01065613          	srli	a2,a2,0x10
 504:	000201b7          	lui	gp,0x20
 508:	003661b3          	or	gp,a2,gp
 50c:	78019073          	csrw	mtohost,gp
 510:	0105d613          	srli	a2,a1,0x10
 514:	000301b7          	lui	gp,0x30
 518:	003661b3          	or	gp,a2,gp
 51c:	78019073          	csrw	mtohost,gp
 520:	00010637          	lui	a2,0x10
 524:	00a60613          	addi	a2,a2,10 # 1000a <begin_signature+0xf00a>
 528:	78061073          	csrw	mtohost,a2
 52c:	780e1073          	csrw	mtohost,t3
 530:	0000006f          	j	530 <exit+0x6c>
 534:	0000                	.2byte	0x0
 536:	0000                	.2byte	0x0
 538:	0000                	.2byte	0x0
 53a:	0000                	.2byte	0x0
 53c:	0000                	.2byte	0x0
 53e:	0000                	.2byte	0x0
 540:	0000                	.2byte	0x0
 542:	0000                	.2byte	0x0
