
/home/adam/mit_6.375/lab5-harness/programs/assembly/../build/assembly/bin/sw.riscv:     file format elf32-littleriscv


Disassembly of section .text:

00000200 <_start>:
 200:	00001097          	auipc	ra,0x1
 204:	e0008093          	addi	ra,ra,-512 # 1000 <begin_signature>
 208:	00aa0137          	lui	sp,0xaa0
 20c:	0aa10113          	addi	sp,sp,170 # aa00aa <_end+0xa9f07a>
 210:	0020a023          	sw	sp,0(ra)
 214:	0000a183          	lw	gp,0(ra)
 218:	00aa0eb7          	lui	t4,0xaa0
 21c:	0aae8e93          	addi	t4,t4,170 # aa00aa <_end+0xa9f07a>
 220:	00200e13          	li	t3,2
 224:	47d19263          	bne	gp,t4,688 <fail>

00000228 <test_3>:
 228:	00001097          	auipc	ra,0x1
 22c:	dd808093          	addi	ra,ra,-552 # 1000 <begin_signature>
 230:	aa00b137          	lui	sp,0xaa00b
 234:	a0010113          	addi	sp,sp,-1536 # aa00aa00 <_end+0xaa0099d0>
 238:	0020a223          	sw	sp,4(ra)
 23c:	0040a183          	lw	gp,4(ra)
 240:	aa00beb7          	lui	t4,0xaa00b
 244:	a00e8e93          	addi	t4,t4,-1536 # aa00aa00 <_end+0xaa0099d0>
 248:	00300e13          	li	t3,3
 24c:	43d19e63          	bne	gp,t4,688 <fail>

00000250 <test_4>:
 250:	00001097          	auipc	ra,0x1
 254:	db008093          	addi	ra,ra,-592 # 1000 <begin_signature>
 258:	0aa01137          	lui	sp,0xaa01
 25c:	aa010113          	addi	sp,sp,-1376 # aa00aa0 <_end+0xa9ffa70>
 260:	0020a423          	sw	sp,8(ra)
 264:	0080a183          	lw	gp,8(ra)
 268:	0aa01eb7          	lui	t4,0xaa01
 26c:	aa0e8e93          	addi	t4,t4,-1376 # aa00aa0 <_end+0xa9ffa70>
 270:	00400e13          	li	t3,4
 274:	41d19a63          	bne	gp,t4,688 <fail>

00000278 <test_5>:
 278:	00001097          	auipc	ra,0x1
 27c:	d8808093          	addi	ra,ra,-632 # 1000 <begin_signature>
 280:	a00aa137          	lui	sp,0xa00aa
 284:	00a10113          	addi	sp,sp,10 # a00aa00a <_end+0xa00a8fda>
 288:	0020a623          	sw	sp,12(ra)
 28c:	00c0a183          	lw	gp,12(ra)
 290:	a00aaeb7          	lui	t4,0xa00aa
 294:	00ae8e93          	addi	t4,t4,10 # a00aa00a <_end+0xa00a8fda>
 298:	00500e13          	li	t3,5
 29c:	3fd19663          	bne	gp,t4,688 <fail>

000002a0 <test_6>:
 2a0:	00001097          	auipc	ra,0x1
 2a4:	d7c08093          	addi	ra,ra,-644 # 101c <tdat8>
 2a8:	00aa0137          	lui	sp,0xaa0
 2ac:	0aa10113          	addi	sp,sp,170 # aa00aa <_end+0xa9f07a>
 2b0:	fe20aa23          	sw	sp,-12(ra)
 2b4:	ff40a183          	lw	gp,-12(ra)
 2b8:	00aa0eb7          	lui	t4,0xaa0
 2bc:	0aae8e93          	addi	t4,t4,170 # aa00aa <_end+0xa9f07a>
 2c0:	00600e13          	li	t3,6
 2c4:	3dd19263          	bne	gp,t4,688 <fail>

000002c8 <test_7>:
 2c8:	00001097          	auipc	ra,0x1
 2cc:	d5408093          	addi	ra,ra,-684 # 101c <tdat8>
 2d0:	aa00b137          	lui	sp,0xaa00b
 2d4:	a0010113          	addi	sp,sp,-1536 # aa00aa00 <_end+0xaa0099d0>
 2d8:	fe20ac23          	sw	sp,-8(ra)
 2dc:	ff80a183          	lw	gp,-8(ra)
 2e0:	aa00beb7          	lui	t4,0xaa00b
 2e4:	a00e8e93          	addi	t4,t4,-1536 # aa00aa00 <_end+0xaa0099d0>
 2e8:	00700e13          	li	t3,7
 2ec:	39d19e63          	bne	gp,t4,688 <fail>

000002f0 <test_8>:
 2f0:	00001097          	auipc	ra,0x1
 2f4:	d2c08093          	addi	ra,ra,-724 # 101c <tdat8>
 2f8:	0aa01137          	lui	sp,0xaa01
 2fc:	aa010113          	addi	sp,sp,-1376 # aa00aa0 <_end+0xa9ffa70>
 300:	fe20ae23          	sw	sp,-4(ra)
 304:	ffc0a183          	lw	gp,-4(ra)
 308:	0aa01eb7          	lui	t4,0xaa01
 30c:	aa0e8e93          	addi	t4,t4,-1376 # aa00aa0 <_end+0xa9ffa70>
 310:	00800e13          	li	t3,8
 314:	37d19a63          	bne	gp,t4,688 <fail>

00000318 <test_9>:
 318:	00001097          	auipc	ra,0x1
 31c:	d0408093          	addi	ra,ra,-764 # 101c <tdat8>
 320:	a00aa137          	lui	sp,0xa00aa
 324:	00a10113          	addi	sp,sp,10 # a00aa00a <_end+0xa00a8fda>
 328:	0020a023          	sw	sp,0(ra)
 32c:	0000a183          	lw	gp,0(ra)
 330:	a00aaeb7          	lui	t4,0xa00aa
 334:	00ae8e93          	addi	t4,t4,10 # a00aa00a <_end+0xa00a8fda>
 338:	00900e13          	li	t3,9
 33c:	35d19663          	bne	gp,t4,688 <fail>

00000340 <test_10>:
 340:	00001097          	auipc	ra,0x1
 344:	ce008093          	addi	ra,ra,-800 # 1020 <tdat9>
 348:	12345137          	lui	sp,0x12345
 34c:	67810113          	addi	sp,sp,1656 # 12345678 <_end+0x12344648>
 350:	fe008213          	addi	tp,ra,-32
 354:	02222023          	sw	sp,32(tp) # 20 <_start-0x1e0>
 358:	0000a183          	lw	gp,0(ra)
 35c:	12345eb7          	lui	t4,0x12345
 360:	678e8e93          	addi	t4,t4,1656 # 12345678 <_end+0x12344648>
 364:	00a00e13          	li	t3,10
 368:	33d19063          	bne	gp,t4,688 <fail>

0000036c <test_11>:
 36c:	00001097          	auipc	ra,0x1
 370:	cb408093          	addi	ra,ra,-844 # 1020 <tdat9>
 374:	58213137          	lui	sp,0x58213
 378:	09810113          	addi	sp,sp,152 # 58213098 <_end+0x58212068>
 37c:	ffd08093          	addi	ra,ra,-3
 380:	0020a3a3          	sw	sp,7(ra)
 384:	00001217          	auipc	tp,0x1
 388:	ca020213          	addi	tp,tp,-864 # 1024 <tdat10>
 38c:	00022183          	lw	gp,0(tp) # 0 <_start-0x200>
 390:	58213eb7          	lui	t4,0x58213
 394:	098e8e93          	addi	t4,t4,152 # 58213098 <_end+0x58212068>
 398:	00b00e13          	li	t3,11
 39c:	2fd19663          	bne	gp,t4,688 <fail>

000003a0 <test_12>:
 3a0:	00c00e13          	li	t3,12
 3a4:	00000213          	li	tp,0
 3a8:	aabbd0b7          	lui	ra,0xaabbd
 3ac:	cdd08093          	addi	ra,ra,-803 # aabbccdd <_end+0xaabbbcad>
 3b0:	00001117          	auipc	sp,0x1
 3b4:	c5010113          	addi	sp,sp,-944 # 1000 <begin_signature>
 3b8:	00112023          	sw	ra,0(sp)
 3bc:	00012183          	lw	gp,0(sp)
 3c0:	aabbdeb7          	lui	t4,0xaabbd
 3c4:	cdde8e93          	addi	t4,t4,-803 # aabbccdd <_end+0xaabbbcad>
 3c8:	2dd19063          	bne	gp,t4,688 <fail>
 3cc:	00120213          	addi	tp,tp,1 # 1 <_start-0x1ff>
 3d0:	00200293          	li	t0,2
 3d4:	fc521ae3          	bne	tp,t0,3a8 <test_12+0x8>

000003d8 <test_13>:
 3d8:	00d00e13          	li	t3,13
 3dc:	00000213          	li	tp,0
 3e0:	daabc0b7          	lui	ra,0xdaabc
 3e4:	ccd08093          	addi	ra,ra,-819 # daabbccd <_end+0xdaabac9d>
 3e8:	00001117          	auipc	sp,0x1
 3ec:	c1810113          	addi	sp,sp,-1000 # 1000 <begin_signature>
 3f0:	00000013          	nop
 3f4:	00112223          	sw	ra,4(sp)
 3f8:	00412183          	lw	gp,4(sp)
 3fc:	daabceb7          	lui	t4,0xdaabc
 400:	ccde8e93          	addi	t4,t4,-819 # daabbccd <_end+0xdaabac9d>
 404:	29d19263          	bne	gp,t4,688 <fail>
 408:	00120213          	addi	tp,tp,1 # 1 <_start-0x1ff>
 40c:	00200293          	li	t0,2
 410:	fc5218e3          	bne	tp,t0,3e0 <test_13+0x8>

00000414 <test_14>:
 414:	00e00e13          	li	t3,14
 418:	00000213          	li	tp,0
 41c:	ddaac0b7          	lui	ra,0xddaac
 420:	bcc08093          	addi	ra,ra,-1076 # ddaabbcc <_end+0xddaaab9c>
 424:	00001117          	auipc	sp,0x1
 428:	bdc10113          	addi	sp,sp,-1060 # 1000 <begin_signature>
 42c:	00000013          	nop
 430:	00000013          	nop
 434:	00112423          	sw	ra,8(sp)
 438:	00812183          	lw	gp,8(sp)
 43c:	ddaaceb7          	lui	t4,0xddaac
 440:	bcce8e93          	addi	t4,t4,-1076 # ddaabbcc <_end+0xddaaab9c>
 444:	25d19263          	bne	gp,t4,688 <fail>
 448:	00120213          	addi	tp,tp,1 # 1 <_start-0x1ff>
 44c:	00200293          	li	t0,2
 450:	fc5216e3          	bne	tp,t0,41c <test_14+0x8>

00000454 <test_15>:
 454:	00f00e13          	li	t3,15
 458:	00000213          	li	tp,0
 45c:	cddab0b7          	lui	ra,0xcddab
 460:	bbc08093          	addi	ra,ra,-1092 # cddaabbc <_end+0xcdda9b8c>
 464:	00000013          	nop
 468:	00001117          	auipc	sp,0x1
 46c:	b9810113          	addi	sp,sp,-1128 # 1000 <begin_signature>
 470:	00112623          	sw	ra,12(sp)
 474:	00c12183          	lw	gp,12(sp)
 478:	cddabeb7          	lui	t4,0xcddab
 47c:	bbce8e93          	addi	t4,t4,-1092 # cddaabbc <_end+0xcdda9b8c>
 480:	21d19463          	bne	gp,t4,688 <fail>
 484:	00120213          	addi	tp,tp,1 # 1 <_start-0x1ff>
 488:	00200293          	li	t0,2
 48c:	fc5218e3          	bne	tp,t0,45c <test_15+0x8>

00000490 <test_16>:
 490:	01000e13          	li	t3,16
 494:	00000213          	li	tp,0
 498:	ccddb0b7          	lui	ra,0xccddb
 49c:	abb08093          	addi	ra,ra,-1349 # ccddaabb <_end+0xccdd9a8b>
 4a0:	00000013          	nop
 4a4:	00001117          	auipc	sp,0x1
 4a8:	b5c10113          	addi	sp,sp,-1188 # 1000 <begin_signature>
 4ac:	00000013          	nop
 4b0:	00112823          	sw	ra,16(sp)
 4b4:	01012183          	lw	gp,16(sp)
 4b8:	ccddbeb7          	lui	t4,0xccddb
 4bc:	abbe8e93          	addi	t4,t4,-1349 # ccddaabb <_end+0xccdd9a8b>
 4c0:	1dd19463          	bne	gp,t4,688 <fail>
 4c4:	00120213          	addi	tp,tp,1 # 1 <_start-0x1ff>
 4c8:	00200293          	li	t0,2
 4cc:	fc5216e3          	bne	tp,t0,498 <test_16+0x8>

000004d0 <test_17>:
 4d0:	01100e13          	li	t3,17
 4d4:	00000213          	li	tp,0
 4d8:	bccde0b7          	lui	ra,0xbccde
 4dc:	aab08093          	addi	ra,ra,-1365 # bccddaab <_end+0xbccdca7b>
 4e0:	00000013          	nop
 4e4:	00000013          	nop
 4e8:	00001117          	auipc	sp,0x1
 4ec:	b1810113          	addi	sp,sp,-1256 # 1000 <begin_signature>
 4f0:	00112a23          	sw	ra,20(sp)
 4f4:	01412183          	lw	gp,20(sp)
 4f8:	bccdeeb7          	lui	t4,0xbccde
 4fc:	aabe8e93          	addi	t4,t4,-1365 # bccddaab <_end+0xbccdca7b>
 500:	19d19463          	bne	gp,t4,688 <fail>
 504:	00120213          	addi	tp,tp,1 # 1 <_start-0x1ff>
 508:	00200293          	li	t0,2
 50c:	fc5216e3          	bne	tp,t0,4d8 <test_17+0x8>

00000510 <test_18>:
 510:	01200e13          	li	t3,18
 514:	00000213          	li	tp,0
 518:	00001117          	auipc	sp,0x1
 51c:	ae810113          	addi	sp,sp,-1304 # 1000 <begin_signature>
 520:	001120b7          	lui	ra,0x112
 524:	23308093          	addi	ra,ra,563 # 112233 <_end+0x111203>
 528:	00112023          	sw	ra,0(sp)
 52c:	00012183          	lw	gp,0(sp)
 530:	00112eb7          	lui	t4,0x112
 534:	233e8e93          	addi	t4,t4,563 # 112233 <_end+0x111203>
 538:	15d19863          	bne	gp,t4,688 <fail>
 53c:	00120213          	addi	tp,tp,1 # 1 <_start-0x1ff>
 540:	00200293          	li	t0,2
 544:	fc521ae3          	bne	tp,t0,518 <test_18+0x8>

00000548 <test_19>:
 548:	01300e13          	li	t3,19
 54c:	00000213          	li	tp,0
 550:	00001117          	auipc	sp,0x1
 554:	ab010113          	addi	sp,sp,-1360 # 1000 <begin_signature>
 558:	300110b7          	lui	ra,0x30011
 55c:	22308093          	addi	ra,ra,547 # 30011223 <_end+0x300101f3>
 560:	00000013          	nop
 564:	00112223          	sw	ra,4(sp)
 568:	00412183          	lw	gp,4(sp)
 56c:	30011eb7          	lui	t4,0x30011
 570:	223e8e93          	addi	t4,t4,547 # 30011223 <_end+0x300101f3>
 574:	11d19a63          	bne	gp,t4,688 <fail>
 578:	00120213          	addi	tp,tp,1 # 1 <_start-0x1ff>
 57c:	00200293          	li	t0,2
 580:	fc5218e3          	bne	tp,t0,550 <test_19+0x8>

00000584 <test_20>:
 584:	01400e13          	li	t3,20
 588:	00000213          	li	tp,0
 58c:	00001117          	auipc	sp,0x1
 590:	a7410113          	addi	sp,sp,-1420 # 1000 <begin_signature>
 594:	330010b7          	lui	ra,0x33001
 598:	12208093          	addi	ra,ra,290 # 33001122 <_end+0x330000f2>
 59c:	00000013          	nop
 5a0:	00000013          	nop
 5a4:	00112423          	sw	ra,8(sp)
 5a8:	00812183          	lw	gp,8(sp)
 5ac:	33001eb7          	lui	t4,0x33001
 5b0:	122e8e93          	addi	t4,t4,290 # 33001122 <_end+0x330000f2>
 5b4:	0dd19a63          	bne	gp,t4,688 <fail>
 5b8:	00120213          	addi	tp,tp,1 # 1 <_start-0x1ff>
 5bc:	00200293          	li	t0,2
 5c0:	fc5216e3          	bne	tp,t0,58c <test_20+0x8>

000005c4 <test_21>:
 5c4:	01500e13          	li	t3,21
 5c8:	00000213          	li	tp,0
 5cc:	00001117          	auipc	sp,0x1
 5d0:	a3410113          	addi	sp,sp,-1484 # 1000 <begin_signature>
 5d4:	00000013          	nop
 5d8:	233000b7          	lui	ra,0x23300
 5dc:	11208093          	addi	ra,ra,274 # 23300112 <_end+0x232ff0e2>
 5e0:	00112623          	sw	ra,12(sp)
 5e4:	00c12183          	lw	gp,12(sp)
 5e8:	23300eb7          	lui	t4,0x23300
 5ec:	112e8e93          	addi	t4,t4,274 # 23300112 <_end+0x232ff0e2>
 5f0:	09d19c63          	bne	gp,t4,688 <fail>
 5f4:	00120213          	addi	tp,tp,1 # 1 <_start-0x1ff>
 5f8:	00200293          	li	t0,2
 5fc:	fc5218e3          	bne	tp,t0,5cc <test_21+0x8>

00000600 <test_22>:
 600:	01600e13          	li	t3,22
 604:	00000213          	li	tp,0
 608:	00001117          	auipc	sp,0x1
 60c:	9f810113          	addi	sp,sp,-1544 # 1000 <begin_signature>
 610:	00000013          	nop
 614:	223300b7          	lui	ra,0x22330
 618:	01108093          	addi	ra,ra,17 # 22330011 <_end+0x2232efe1>
 61c:	00000013          	nop
 620:	00112823          	sw	ra,16(sp)
 624:	01012183          	lw	gp,16(sp)
 628:	22330eb7          	lui	t4,0x22330
 62c:	011e8e93          	addi	t4,t4,17 # 22330011 <_end+0x2232efe1>
 630:	05d19c63          	bne	gp,t4,688 <fail>
 634:	00120213          	addi	tp,tp,1 # 1 <_start-0x1ff>
 638:	00200293          	li	t0,2
 63c:	fc5216e3          	bne	tp,t0,608 <test_22+0x8>

00000640 <test_23>:
 640:	01700e13          	li	t3,23
 644:	00000213          	li	tp,0
 648:	00001117          	auipc	sp,0x1
 64c:	9b810113          	addi	sp,sp,-1608 # 1000 <begin_signature>
 650:	00000013          	nop
 654:	00000013          	nop
 658:	122330b7          	lui	ra,0x12233
 65c:	00108093          	addi	ra,ra,1 # 12233001 <_end+0x12231fd1>
 660:	00112a23          	sw	ra,20(sp)
 664:	01412183          	lw	gp,20(sp)
 668:	12233eb7          	lui	t4,0x12233
 66c:	001e8e93          	addi	t4,t4,1 # 12233001 <_end+0x12231fd1>
 670:	01d19c63          	bne	gp,t4,688 <fail>
 674:	00120213          	addi	tp,tp,1 # 1 <_start-0x1ff>
 678:	00200293          	li	t0,2
 67c:	fc5216e3          	bne	tp,t0,648 <test_23+0x8>
 680:	01c01663          	bne	zero,t3,68c <pass>
 684:	00100e13          	li	t3,1

00000688 <fail>:
 688:	00c0006f          	j	694 <exit>

0000068c <pass>:
 68c:	00000e13          	li	t3,0
 690:	0040006f          	j	694 <exit>

00000694 <exit>:
 694:	c0002573          	rdcycle	a0
 698:	c02025f3          	rdinstret	a1
 69c:	01051613          	slli	a2,a0,0x10
 6a0:	01065613          	srli	a2,a2,0x10
 6a4:	000206b7          	lui	a3,0x20
 6a8:	00d666b3          	or	a3,a2,a3
 6ac:	78069073          	csrw	mtohost,a3
 6b0:	01055613          	srli	a2,a0,0x10
 6b4:	000306b7          	lui	a3,0x30
 6b8:	00d666b3          	or	a3,a2,a3
 6bc:	78069073          	csrw	mtohost,a3
 6c0:	00010637          	lui	a2,0x10
 6c4:	00a60613          	addi	a2,a2,10 # 1000a <_end+0xefda>
 6c8:	78061073          	csrw	mtohost,a2
 6cc:	01059613          	slli	a2,a1,0x10
 6d0:	01065613          	srli	a2,a2,0x10
 6d4:	000201b7          	lui	gp,0x20
 6d8:	003661b3          	or	gp,a2,gp
 6dc:	78019073          	csrw	mtohost,gp
 6e0:	0105d613          	srli	a2,a1,0x10
 6e4:	000301b7          	lui	gp,0x30
 6e8:	003661b3          	or	gp,a2,gp
 6ec:	78019073          	csrw	mtohost,gp
 6f0:	00010637          	lui	a2,0x10
 6f4:	00a60613          	addi	a2,a2,10 # 1000a <_end+0xefda>
 6f8:	78061073          	csrw	mtohost,a2
 6fc:	780e1073          	csrw	mtohost,t3
 700:	0000006f          	j	700 <exit+0x6c>
