
/home/adam/mit_6.375/lab5-harness/programs/assembly/../build/assembly/bin/xor.riscv:     file format elf32-littleriscv


Disassembly of section .text:

00000200 <_start>:
 200:	ff0100b7          	lui	ra,0xff010
 204:	f0008093          	addi	ra,ra,-256 # ff00ff00 <begin_signature+0xff00ef00>
 208:	0f0f1137          	lui	sp,0xf0f1
 20c:	f0f10113          	addi	sp,sp,-241 # f0f0f0f <begin_signature+0xf0eff0f>
 210:	0020c1b3          	xor	gp,ra,sp
 214:	f00ffeb7          	lui	t4,0xf00ff
 218:	00fe8e93          	addi	t4,t4,15 # f00ff00f <begin_signature+0xf00fe00f>
 21c:	00200e13          	li	t3,2
 220:	4bd19263          	bne	gp,t4,6c4 <fail>

00000224 <test_3>:
 224:	0ff010b7          	lui	ra,0xff01
 228:	ff008093          	addi	ra,ra,-16 # ff00ff0 <begin_signature+0xfeffff0>
 22c:	f0f0f137          	lui	sp,0xf0f0f
 230:	0f010113          	addi	sp,sp,240 # f0f0f0f0 <begin_signature+0xf0f0e0f0>
 234:	0020c1b3          	xor	gp,ra,sp
 238:	ff010eb7          	lui	t4,0xff010
 23c:	f00e8e93          	addi	t4,t4,-256 # ff00ff00 <begin_signature+0xff00ef00>
 240:	00300e13          	li	t3,3
 244:	49d19063          	bne	gp,t4,6c4 <fail>

00000248 <test_4>:
 248:	00ff00b7          	lui	ra,0xff0
 24c:	0ff08093          	addi	ra,ra,255 # ff00ff <begin_signature+0xfef0ff>
 250:	0f0f1137          	lui	sp,0xf0f1
 254:	f0f10113          	addi	sp,sp,-241 # f0f0f0f <begin_signature+0xf0eff0f>
 258:	0020c1b3          	xor	gp,ra,sp
 25c:	0ff01eb7          	lui	t4,0xff01
 260:	ff0e8e93          	addi	t4,t4,-16 # ff00ff0 <begin_signature+0xfeffff0>
 264:	00400e13          	li	t3,4
 268:	45d19e63          	bne	gp,t4,6c4 <fail>

0000026c <test_5>:
 26c:	f00ff0b7          	lui	ra,0xf00ff
 270:	00f08093          	addi	ra,ra,15 # f00ff00f <begin_signature+0xf00fe00f>
 274:	f0f0f137          	lui	sp,0xf0f0f
 278:	0f010113          	addi	sp,sp,240 # f0f0f0f0 <begin_signature+0xf0f0e0f0>
 27c:	0020c1b3          	xor	gp,ra,sp
 280:	00ff0eb7          	lui	t4,0xff0
 284:	0ffe8e93          	addi	t4,t4,255 # ff00ff <begin_signature+0xfef0ff>
 288:	00500e13          	li	t3,5
 28c:	43d19c63          	bne	gp,t4,6c4 <fail>

00000290 <test_6>:
 290:	ff0100b7          	lui	ra,0xff010
 294:	f0008093          	addi	ra,ra,-256 # ff00ff00 <begin_signature+0xff00ef00>
 298:	0f0f1137          	lui	sp,0xf0f1
 29c:	f0f10113          	addi	sp,sp,-241 # f0f0f0f <begin_signature+0xf0eff0f>
 2a0:	0020c0b3          	xor	ra,ra,sp
 2a4:	f00ffeb7          	lui	t4,0xf00ff
 2a8:	00fe8e93          	addi	t4,t4,15 # f00ff00f <begin_signature+0xf00fe00f>
 2ac:	00600e13          	li	t3,6
 2b0:	41d09a63          	bne	ra,t4,6c4 <fail>

000002b4 <test_7>:
 2b4:	ff0100b7          	lui	ra,0xff010
 2b8:	f0008093          	addi	ra,ra,-256 # ff00ff00 <begin_signature+0xff00ef00>
 2bc:	0f0f1137          	lui	sp,0xf0f1
 2c0:	f0f10113          	addi	sp,sp,-241 # f0f0f0f <begin_signature+0xf0eff0f>
 2c4:	0020c133          	xor	sp,ra,sp
 2c8:	f00ffeb7          	lui	t4,0xf00ff
 2cc:	00fe8e93          	addi	t4,t4,15 # f00ff00f <begin_signature+0xf00fe00f>
 2d0:	00700e13          	li	t3,7
 2d4:	3fd11863          	bne	sp,t4,6c4 <fail>

000002d8 <test_8>:
 2d8:	ff0100b7          	lui	ra,0xff010
 2dc:	f0008093          	addi	ra,ra,-256 # ff00ff00 <begin_signature+0xff00ef00>
 2e0:	0010c0b3          	xor	ra,ra,ra
 2e4:	00000e93          	li	t4,0
 2e8:	00800e13          	li	t3,8
 2ec:	3dd09c63          	bne	ra,t4,6c4 <fail>

000002f0 <test_9>:
 2f0:	00000213          	li	tp,0
 2f4:	ff0100b7          	lui	ra,0xff010
 2f8:	f0008093          	addi	ra,ra,-256 # ff00ff00 <begin_signature+0xff00ef00>
 2fc:	0f0f1137          	lui	sp,0xf0f1
 300:	f0f10113          	addi	sp,sp,-241 # f0f0f0f <begin_signature+0xf0eff0f>
 304:	0020c1b3          	xor	gp,ra,sp
 308:	00018313          	mv	t1,gp
 30c:	00120213          	addi	tp,tp,1 # 1 <_start-0x1ff>
 310:	00200293          	li	t0,2
 314:	fe5210e3          	bne	tp,t0,2f4 <test_9+0x4>
 318:	f00ffeb7          	lui	t4,0xf00ff
 31c:	00fe8e93          	addi	t4,t4,15 # f00ff00f <begin_signature+0xf00fe00f>
 320:	00900e13          	li	t3,9
 324:	3bd31063          	bne	t1,t4,6c4 <fail>

00000328 <test_10>:
 328:	00000213          	li	tp,0
 32c:	0ff010b7          	lui	ra,0xff01
 330:	ff008093          	addi	ra,ra,-16 # ff00ff0 <begin_signature+0xfeffff0>
 334:	f0f0f137          	lui	sp,0xf0f0f
 338:	0f010113          	addi	sp,sp,240 # f0f0f0f0 <begin_signature+0xf0f0e0f0>
 33c:	0020c1b3          	xor	gp,ra,sp
 340:	00000013          	nop
 344:	00018313          	mv	t1,gp
 348:	00120213          	addi	tp,tp,1 # 1 <_start-0x1ff>
 34c:	00200293          	li	t0,2
 350:	fc521ee3          	bne	tp,t0,32c <test_10+0x4>
 354:	ff010eb7          	lui	t4,0xff010
 358:	f00e8e93          	addi	t4,t4,-256 # ff00ff00 <begin_signature+0xff00ef00>
 35c:	00a00e13          	li	t3,10
 360:	37d31263          	bne	t1,t4,6c4 <fail>

00000364 <test_11>:
 364:	00000213          	li	tp,0
 368:	00ff00b7          	lui	ra,0xff0
 36c:	0ff08093          	addi	ra,ra,255 # ff00ff <begin_signature+0xfef0ff>
 370:	0f0f1137          	lui	sp,0xf0f1
 374:	f0f10113          	addi	sp,sp,-241 # f0f0f0f <begin_signature+0xf0eff0f>
 378:	0020c1b3          	xor	gp,ra,sp
 37c:	00000013          	nop
 380:	00000013          	nop
 384:	00018313          	mv	t1,gp
 388:	00120213          	addi	tp,tp,1 # 1 <_start-0x1ff>
 38c:	00200293          	li	t0,2
 390:	fc521ce3          	bne	tp,t0,368 <test_11+0x4>
 394:	0ff01eb7          	lui	t4,0xff01
 398:	ff0e8e93          	addi	t4,t4,-16 # ff00ff0 <begin_signature+0xfeffff0>
 39c:	00b00e13          	li	t3,11
 3a0:	33d31263          	bne	t1,t4,6c4 <fail>

000003a4 <test_12>:
 3a4:	00000213          	li	tp,0
 3a8:	ff0100b7          	lui	ra,0xff010
 3ac:	f0008093          	addi	ra,ra,-256 # ff00ff00 <begin_signature+0xff00ef00>
 3b0:	0f0f1137          	lui	sp,0xf0f1
 3b4:	f0f10113          	addi	sp,sp,-241 # f0f0f0f <begin_signature+0xf0eff0f>
 3b8:	0020c1b3          	xor	gp,ra,sp
 3bc:	00120213          	addi	tp,tp,1 # 1 <_start-0x1ff>
 3c0:	00200293          	li	t0,2
 3c4:	fe5212e3          	bne	tp,t0,3a8 <test_12+0x4>
 3c8:	f00ffeb7          	lui	t4,0xf00ff
 3cc:	00fe8e93          	addi	t4,t4,15 # f00ff00f <begin_signature+0xf00fe00f>
 3d0:	00c00e13          	li	t3,12
 3d4:	2fd19863          	bne	gp,t4,6c4 <fail>

000003d8 <test_13>:
 3d8:	00000213          	li	tp,0
 3dc:	0ff010b7          	lui	ra,0xff01
 3e0:	ff008093          	addi	ra,ra,-16 # ff00ff0 <begin_signature+0xfeffff0>
 3e4:	f0f0f137          	lui	sp,0xf0f0f
 3e8:	0f010113          	addi	sp,sp,240 # f0f0f0f0 <begin_signature+0xf0f0e0f0>
 3ec:	00000013          	nop
 3f0:	0020c1b3          	xor	gp,ra,sp
 3f4:	00120213          	addi	tp,tp,1 # 1 <_start-0x1ff>
 3f8:	00200293          	li	t0,2
 3fc:	fe5210e3          	bne	tp,t0,3dc <test_13+0x4>
 400:	ff010eb7          	lui	t4,0xff010
 404:	f00e8e93          	addi	t4,t4,-256 # ff00ff00 <begin_signature+0xff00ef00>
 408:	00d00e13          	li	t3,13
 40c:	2bd19c63          	bne	gp,t4,6c4 <fail>

00000410 <test_14>:
 410:	00000213          	li	tp,0
 414:	00ff00b7          	lui	ra,0xff0
 418:	0ff08093          	addi	ra,ra,255 # ff00ff <begin_signature+0xfef0ff>
 41c:	0f0f1137          	lui	sp,0xf0f1
 420:	f0f10113          	addi	sp,sp,-241 # f0f0f0f <begin_signature+0xf0eff0f>
 424:	00000013          	nop
 428:	00000013          	nop
 42c:	0020c1b3          	xor	gp,ra,sp
 430:	00120213          	addi	tp,tp,1 # 1 <_start-0x1ff>
 434:	00200293          	li	t0,2
 438:	fc521ee3          	bne	tp,t0,414 <test_14+0x4>
 43c:	0ff01eb7          	lui	t4,0xff01
 440:	ff0e8e93          	addi	t4,t4,-16 # ff00ff0 <begin_signature+0xfeffff0>
 444:	00e00e13          	li	t3,14
 448:	27d19e63          	bne	gp,t4,6c4 <fail>

0000044c <test_15>:
 44c:	00000213          	li	tp,0
 450:	ff0100b7          	lui	ra,0xff010
 454:	f0008093          	addi	ra,ra,-256 # ff00ff00 <begin_signature+0xff00ef00>
 458:	00000013          	nop
 45c:	0f0f1137          	lui	sp,0xf0f1
 460:	f0f10113          	addi	sp,sp,-241 # f0f0f0f <begin_signature+0xf0eff0f>
 464:	0020c1b3          	xor	gp,ra,sp
 468:	00120213          	addi	tp,tp,1 # 1 <_start-0x1ff>
 46c:	00200293          	li	t0,2
 470:	fe5210e3          	bne	tp,t0,450 <test_15+0x4>
 474:	f00ffeb7          	lui	t4,0xf00ff
 478:	00fe8e93          	addi	t4,t4,15 # f00ff00f <begin_signature+0xf00fe00f>
 47c:	00f00e13          	li	t3,15
 480:	25d19263          	bne	gp,t4,6c4 <fail>

00000484 <test_16>:
 484:	00000213          	li	tp,0
 488:	0ff010b7          	lui	ra,0xff01
 48c:	ff008093          	addi	ra,ra,-16 # ff00ff0 <begin_signature+0xfeffff0>
 490:	00000013          	nop
 494:	f0f0f137          	lui	sp,0xf0f0f
 498:	0f010113          	addi	sp,sp,240 # f0f0f0f0 <begin_signature+0xf0f0e0f0>
 49c:	00000013          	nop
 4a0:	0020c1b3          	xor	gp,ra,sp
 4a4:	00120213          	addi	tp,tp,1 # 1 <_start-0x1ff>
 4a8:	00200293          	li	t0,2
 4ac:	fc521ee3          	bne	tp,t0,488 <test_16+0x4>
 4b0:	ff010eb7          	lui	t4,0xff010
 4b4:	f00e8e93          	addi	t4,t4,-256 # ff00ff00 <begin_signature+0xff00ef00>
 4b8:	01000e13          	li	t3,16
 4bc:	21d19463          	bne	gp,t4,6c4 <fail>

000004c0 <test_17>:
 4c0:	00000213          	li	tp,0
 4c4:	00ff00b7          	lui	ra,0xff0
 4c8:	0ff08093          	addi	ra,ra,255 # ff00ff <begin_signature+0xfef0ff>
 4cc:	00000013          	nop
 4d0:	00000013          	nop
 4d4:	0f0f1137          	lui	sp,0xf0f1
 4d8:	f0f10113          	addi	sp,sp,-241 # f0f0f0f <begin_signature+0xf0eff0f>
 4dc:	0020c1b3          	xor	gp,ra,sp
 4e0:	00120213          	addi	tp,tp,1 # 1 <_start-0x1ff>
 4e4:	00200293          	li	t0,2
 4e8:	fc521ee3          	bne	tp,t0,4c4 <test_17+0x4>
 4ec:	0ff01eb7          	lui	t4,0xff01
 4f0:	ff0e8e93          	addi	t4,t4,-16 # ff00ff0 <begin_signature+0xfeffff0>
 4f4:	01100e13          	li	t3,17
 4f8:	1dd19663          	bne	gp,t4,6c4 <fail>

000004fc <test_18>:
 4fc:	00000213          	li	tp,0
 500:	0f0f1137          	lui	sp,0xf0f1
 504:	f0f10113          	addi	sp,sp,-241 # f0f0f0f <begin_signature+0xf0eff0f>
 508:	ff0100b7          	lui	ra,0xff010
 50c:	f0008093          	addi	ra,ra,-256 # ff00ff00 <begin_signature+0xff00ef00>
 510:	0020c1b3          	xor	gp,ra,sp
 514:	00120213          	addi	tp,tp,1 # 1 <_start-0x1ff>
 518:	00200293          	li	t0,2
 51c:	fe5212e3          	bne	tp,t0,500 <test_18+0x4>
 520:	f00ffeb7          	lui	t4,0xf00ff
 524:	00fe8e93          	addi	t4,t4,15 # f00ff00f <begin_signature+0xf00fe00f>
 528:	01200e13          	li	t3,18
 52c:	19d19c63          	bne	gp,t4,6c4 <fail>

00000530 <test_19>:
 530:	00000213          	li	tp,0
 534:	f0f0f137          	lui	sp,0xf0f0f
 538:	0f010113          	addi	sp,sp,240 # f0f0f0f0 <begin_signature+0xf0f0e0f0>
 53c:	0ff010b7          	lui	ra,0xff01
 540:	ff008093          	addi	ra,ra,-16 # ff00ff0 <begin_signature+0xfeffff0>
 544:	00000013          	nop
 548:	0020c1b3          	xor	gp,ra,sp
 54c:	00120213          	addi	tp,tp,1 # 1 <_start-0x1ff>
 550:	00200293          	li	t0,2
 554:	fe5210e3          	bne	tp,t0,534 <test_19+0x4>
 558:	ff010eb7          	lui	t4,0xff010
 55c:	f00e8e93          	addi	t4,t4,-256 # ff00ff00 <begin_signature+0xff00ef00>
 560:	01300e13          	li	t3,19
 564:	17d19063          	bne	gp,t4,6c4 <fail>

00000568 <test_20>:
 568:	00000213          	li	tp,0
 56c:	0f0f1137          	lui	sp,0xf0f1
 570:	f0f10113          	addi	sp,sp,-241 # f0f0f0f <begin_signature+0xf0eff0f>
 574:	00ff00b7          	lui	ra,0xff0
 578:	0ff08093          	addi	ra,ra,255 # ff00ff <begin_signature+0xfef0ff>
 57c:	00000013          	nop
 580:	00000013          	nop
 584:	0020c1b3          	xor	gp,ra,sp
 588:	00120213          	addi	tp,tp,1 # 1 <_start-0x1ff>
 58c:	00200293          	li	t0,2
 590:	fc521ee3          	bne	tp,t0,56c <test_20+0x4>
 594:	0ff01eb7          	lui	t4,0xff01
 598:	ff0e8e93          	addi	t4,t4,-16 # ff00ff0 <begin_signature+0xfeffff0>
 59c:	01400e13          	li	t3,20
 5a0:	13d19263          	bne	gp,t4,6c4 <fail>

000005a4 <test_21>:
 5a4:	00000213          	li	tp,0
 5a8:	0f0f1137          	lui	sp,0xf0f1
 5ac:	f0f10113          	addi	sp,sp,-241 # f0f0f0f <begin_signature+0xf0eff0f>
 5b0:	00000013          	nop
 5b4:	ff0100b7          	lui	ra,0xff010
 5b8:	f0008093          	addi	ra,ra,-256 # ff00ff00 <begin_signature+0xff00ef00>
 5bc:	0020c1b3          	xor	gp,ra,sp
 5c0:	00120213          	addi	tp,tp,1 # 1 <_start-0x1ff>
 5c4:	00200293          	li	t0,2
 5c8:	fe5210e3          	bne	tp,t0,5a8 <test_21+0x4>
 5cc:	f00ffeb7          	lui	t4,0xf00ff
 5d0:	00fe8e93          	addi	t4,t4,15 # f00ff00f <begin_signature+0xf00fe00f>
 5d4:	01500e13          	li	t3,21
 5d8:	0fd19663          	bne	gp,t4,6c4 <fail>

000005dc <test_22>:
 5dc:	00000213          	li	tp,0
 5e0:	f0f0f137          	lui	sp,0xf0f0f
 5e4:	0f010113          	addi	sp,sp,240 # f0f0f0f0 <begin_signature+0xf0f0e0f0>
 5e8:	00000013          	nop
 5ec:	0ff010b7          	lui	ra,0xff01
 5f0:	ff008093          	addi	ra,ra,-16 # ff00ff0 <begin_signature+0xfeffff0>
 5f4:	00000013          	nop
 5f8:	0020c1b3          	xor	gp,ra,sp
 5fc:	00120213          	addi	tp,tp,1 # 1 <_start-0x1ff>
 600:	00200293          	li	t0,2
 604:	fc521ee3          	bne	tp,t0,5e0 <test_22+0x4>
 608:	ff010eb7          	lui	t4,0xff010
 60c:	f00e8e93          	addi	t4,t4,-256 # ff00ff00 <begin_signature+0xff00ef00>
 610:	01600e13          	li	t3,22
 614:	0bd19863          	bne	gp,t4,6c4 <fail>

00000618 <test_23>:
 618:	00000213          	li	tp,0
 61c:	0f0f1137          	lui	sp,0xf0f1
 620:	f0f10113          	addi	sp,sp,-241 # f0f0f0f <begin_signature+0xf0eff0f>
 624:	00000013          	nop
 628:	00000013          	nop
 62c:	00ff00b7          	lui	ra,0xff0
 630:	0ff08093          	addi	ra,ra,255 # ff00ff <begin_signature+0xfef0ff>
 634:	0020c1b3          	xor	gp,ra,sp
 638:	00120213          	addi	tp,tp,1 # 1 <_start-0x1ff>
 63c:	00200293          	li	t0,2
 640:	fc521ee3          	bne	tp,t0,61c <test_23+0x4>
 644:	0ff01eb7          	lui	t4,0xff01
 648:	ff0e8e93          	addi	t4,t4,-16 # ff00ff0 <begin_signature+0xfeffff0>
 64c:	01700e13          	li	t3,23
 650:	07d19a63          	bne	gp,t4,6c4 <fail>

00000654 <test_24>:
 654:	ff0100b7          	lui	ra,0xff010
 658:	f0008093          	addi	ra,ra,-256 # ff00ff00 <begin_signature+0xff00ef00>
 65c:	00104133          	xor	sp,zero,ra
 660:	ff010eb7          	lui	t4,0xff010
 664:	f00e8e93          	addi	t4,t4,-256 # ff00ff00 <begin_signature+0xff00ef00>
 668:	01800e13          	li	t3,24
 66c:	05d11c63          	bne	sp,t4,6c4 <fail>

00000670 <test_25>:
 670:	00ff00b7          	lui	ra,0xff0
 674:	0ff08093          	addi	ra,ra,255 # ff00ff <begin_signature+0xfef0ff>
 678:	0000c133          	xor	sp,ra,zero
 67c:	00ff0eb7          	lui	t4,0xff0
 680:	0ffe8e93          	addi	t4,t4,255 # ff00ff <begin_signature+0xfef0ff>
 684:	01900e13          	li	t3,25
 688:	03d11e63          	bne	sp,t4,6c4 <fail>

0000068c <test_26>:
 68c:	000040b3          	xor	ra,zero,zero
 690:	00000e93          	li	t4,0
 694:	01a00e13          	li	t3,26
 698:	03d09663          	bne	ra,t4,6c4 <fail>

0000069c <test_27>:
 69c:	111110b7          	lui	ra,0x11111
 6a0:	11108093          	addi	ra,ra,273 # 11111111 <begin_signature+0x11110111>
 6a4:	22222137          	lui	sp,0x22222
 6a8:	22210113          	addi	sp,sp,546 # 22222222 <begin_signature+0x22221222>
 6ac:	0020c033          	xor	zero,ra,sp
 6b0:	00000e93          	li	t4,0
 6b4:	01b00e13          	li	t3,27
 6b8:	01d01663          	bne	zero,t4,6c4 <fail>
 6bc:	01c01663          	bne	zero,t3,6c8 <pass>
 6c0:	00100e13          	li	t3,1

000006c4 <fail>:
 6c4:	00c0006f          	j	6d0 <exit>

000006c8 <pass>:
 6c8:	00000e13          	li	t3,0
 6cc:	0040006f          	j	6d0 <exit>

000006d0 <exit>:
 6d0:	c0002573          	rdcycle	a0
 6d4:	c02025f3          	rdinstret	a1
 6d8:	01051613          	slli	a2,a0,0x10
 6dc:	01065613          	srli	a2,a2,0x10
 6e0:	000206b7          	lui	a3,0x20
 6e4:	00d666b3          	or	a3,a2,a3
 6e8:	78069073          	csrw	mtohost,a3
 6ec:	01055613          	srli	a2,a0,0x10
 6f0:	000306b7          	lui	a3,0x30
 6f4:	00d666b3          	or	a3,a2,a3
 6f8:	78069073          	csrw	mtohost,a3
 6fc:	00010637          	lui	a2,0x10
 700:	00a60613          	addi	a2,a2,10 # 1000a <begin_signature+0xf00a>
 704:	78061073          	csrw	mtohost,a2
 708:	01059613          	slli	a2,a1,0x10
 70c:	01065613          	srli	a2,a2,0x10
 710:	000201b7          	lui	gp,0x20
 714:	003661b3          	or	gp,a2,gp
 718:	78019073          	csrw	mtohost,gp
 71c:	0105d613          	srli	a2,a1,0x10
 720:	000301b7          	lui	gp,0x30
 724:	003661b3          	or	gp,a2,gp
 728:	78019073          	csrw	mtohost,gp
 72c:	00010637          	lui	a2,0x10
 730:	00a60613          	addi	a2,a2,10 # 1000a <begin_signature+0xf00a>
 734:	78061073          	csrw	mtohost,a2
 738:	780e1073          	csrw	mtohost,t3
 73c:	0000006f          	j	73c <exit+0x6c>
 740:	0000                	.2byte	0x0
 742:	0000                	.2byte	0x0
