
/home/adam/Documents/lab8/programs/benchmarks/../build/benchmarks/bin/multiply.riscv:     file format elf32-littleriscv


Disassembly of section .text:

00000100 <user_trap_entry>:
 100:	1ac0006f          	j	2ac <trap_entry>
 104:	00000013          	nop
 108:	00000013          	nop
 10c:	00000013          	nop
 110:	00000013          	nop
 114:	00000013          	nop
 118:	00000013          	nop
 11c:	00000013          	nop
 120:	00000013          	nop
 124:	00000013          	nop
 128:	00000013          	nop
 12c:	00000013          	nop
 130:	00000013          	nop
 134:	00000013          	nop
 138:	00000013          	nop
 13c:	00000013          	nop

00000140 <supervisor_trap_entry>:
 140:	0000006f          	j	140 <supervisor_trap_entry>
 144:	00000013          	nop
 148:	00000013          	nop
 14c:	00000013          	nop
 150:	00000013          	nop
 154:	00000013          	nop
 158:	00000013          	nop
 15c:	00000013          	nop
 160:	00000013          	nop
 164:	00000013          	nop
 168:	00000013          	nop
 16c:	00000013          	nop
 170:	00000013          	nop
 174:	00000013          	nop
 178:	00000013          	nop
 17c:	00000013          	nop

00000180 <hypervisor_trap_entry>:
 180:	0000006f          	j	180 <hypervisor_trap_entry>
 184:	00000013          	nop
 188:	00000013          	nop
 18c:	00000013          	nop
 190:	00000013          	nop
 194:	00000013          	nop
 198:	00000013          	nop
 19c:	00000013          	nop
 1a0:	00000013          	nop
 1a4:	00000013          	nop
 1a8:	00000013          	nop
 1ac:	00000013          	nop
 1b0:	00000013          	nop
 1b4:	00000013          	nop
 1b8:	00000013          	nop
 1bc:	00000013          	nop

000001c0 <machine_trap_entry>:
 1c0:	0ec0006f          	j	2ac <trap_entry>
 1c4:	00000013          	nop
 1c8:	00000013          	nop
 1cc:	00000013          	nop
 1d0:	00000013          	nop
 1d4:	00000013          	nop
 1d8:	00000013          	nop
 1dc:	00000013          	nop
 1e0:	00000013          	nop
 1e4:	00000013          	nop
 1e8:	00000013          	nop
 1ec:	00000013          	nop
 1f0:	00000013          	nop
 1f4:	00000013          	nop
 1f8:	00000013          	nop
 1fc:	00000013          	nop

00000200 <_start>:
 200:	00000093          	li	ra,0
 204:	00000113          	li	sp,0
 208:	00000193          	li	gp,0
 20c:	00000213          	li	tp,0
 210:	00000293          	li	t0,0
 214:	00000313          	li	t1,0
 218:	00000393          	li	t2,0
 21c:	00000413          	li	s0,0
 220:	00000493          	li	s1,0
 224:	00000513          	li	a0,0
 228:	00000593          	li	a1,0
 22c:	00000613          	li	a2,0
 230:	00000693          	li	a3,0
 234:	00000713          	li	a4,0
 238:	00000793          	li	a5,0
 23c:	00000813          	li	a6,0
 240:	00000893          	li	a7,0
 244:	00000913          	li	s2,0
 248:	00000993          	li	s3,0
 24c:	00000a13          	li	s4,0
 250:	00000a93          	li	s5,0
 254:	00000b13          	li	s6,0
 258:	00000b93          	li	s7,0
 25c:	00000c13          	li	s8,0
 260:	00000c93          	li	s9,0
 264:	00000d13          	li	s10,0
 268:	00000d93          	li	s11,0
 26c:	00000e13          	li	t3,0
 270:	00000e93          	li	t4,0
 274:	00000f13          	li	t5,0
 278:	00000f93          	li	t6,0
 27c:	00001197          	auipc	gp,0x1
 280:	f9418193          	addi	gp,gp,-108 # 1210 <_gp_ptr>
 284:	00000217          	auipc	tp,0x0
 288:	7cb20213          	addi	tp,tp,1995 # a4f <_end+0x3f>
 28c:	fc027213          	andi	tp,tp,-64
 290:	f1402573          	csrr	a0,mhartid
 294:	01151613          	slli	a2,a0,0x11
 298:	00c20233          	add	tp,tp,a2
 29c:	00150113          	addi	sp,a0,1
 2a0:	01111113          	slli	sp,sp,0x11
 2a4:	00410133          	add	sp,sp,tp
 2a8:	0fc0006f          	j	3a4 <_init>

000002ac <trap_entry>:
 2ac:	0000006f          	j	2ac <trap_entry>
 2b0:	0000                	.2byte	0x0
 2b2:	0000                	.2byte	0x0
 2b4:	0000                	.2byte	0x0
 2b6:	0000                	.2byte	0x0
 2b8:	0000                	.2byte	0x0
 2ba:	0000                	.2byte	0x0
 2bc:	0000                	.2byte	0x0
 2be:	0000                	.2byte	0x0
 2c0:	0000                	.2byte	0x0
 2c2:	0000                	.2byte	0x0

000002c4 <multiply>:
 2c4:	00050713          	mv	a4,a0
 2c8:	02000693          	li	a3,32
 2cc:	00000513          	li	a0,0
 2d0:	00177793          	andi	a5,a4,1
 2d4:	fff68693          	addi	a3,a3,-1
 2d8:	00078463          	beqz	a5,2e0 <multiply+0x1c>
 2dc:	00b50533          	add	a0,a0,a1
 2e0:	40175713          	srai	a4,a4,0x1
 2e4:	00159593          	slli	a1,a1,0x1
 2e8:	fe0694e3          	bnez	a3,2d0 <multiply+0xc>
 2ec:	00008067          	ret

000002f0 <printInt>:
 2f0:	01051793          	slli	a5,a0,0x10
 2f4:	00020737          	lui	a4,0x20
 2f8:	0107d793          	srli	a5,a5,0x10
 2fc:	00e7e7b3          	or	a5,a5,a4
 300:	78079073          	csrw	mtohost,a5
 304:	000307b7          	lui	a5,0x30
 308:	01055513          	srli	a0,a0,0x10
 30c:	00f56533          	or	a0,a0,a5
 310:	78051073          	csrw	mtohost,a0
 314:	00008067          	ret

00000318 <printChar>:
 318:	01051513          	slli	a0,a0,0x10
 31c:	000107b7          	lui	a5,0x10
 320:	01055513          	srli	a0,a0,0x10
 324:	00f56533          	or	a0,a0,a5
 328:	78051073          	csrw	mtohost,a0
 32c:	00008067          	ret

00000330 <printStr>:
 330:	ffc57793          	andi	a5,a0,-4
 334:	0007a683          	lw	a3,0(a5) # 10000 <_gp_ptr+0xedf0>
 338:	00351713          	slli	a4,a0,0x3
 33c:	01877713          	andi	a4,a4,24
 340:	0ff00793          	li	a5,255
 344:	00e797b3          	sll	a5,a5,a4
 348:	00d7f7b3          	and	a5,a5,a3
 34c:	00e7d7b3          	srl	a5,a5,a4
 350:	04078063          	beqz	a5,390 <printStr+0x60>
 354:	00010637          	lui	a2,0x10
 358:	fff60813          	addi	a6,a2,-1 # ffff <_gp_ptr+0xedef>
 35c:	0ff00593          	li	a1,255
 360:	0107f7b3          	and	a5,a5,a6
 364:	00c7e7b3          	or	a5,a5,a2
 368:	78079073          	csrw	mtohost,a5
 36c:	00150513          	addi	a0,a0,1
 370:	ffc57793          	andi	a5,a0,-4
 374:	0007a683          	lw	a3,0(a5)
 378:	00351713          	slli	a4,a0,0x3
 37c:	01877713          	andi	a4,a4,24
 380:	00e597b3          	sll	a5,a1,a4
 384:	00d7f7b3          	and	a5,a5,a3
 388:	00e7d7b3          	srl	a5,a5,a4
 38c:	fc079ae3          	bnez	a5,360 <printStr+0x30>
 390:	00008067          	ret

00000394 <toHostExit>:
 394:	01051793          	slli	a5,a0,0x10
 398:	0107d793          	srli	a5,a5,0x10
 39c:	78079073          	csrw	mtohost,a5
 3a0:	0000006f          	j	3a0 <toHostExit+0xc>

000003a4 <_init>:
 3a4:	ff010113          	addi	sp,sp,-16
 3a8:	00000593          	li	a1,0
 3ac:	00000513          	li	a0,0
 3b0:	00112623          	sw	ra,12(sp)
 3b4:	014000ef          	jal	ra,3c8 <main>
 3b8:	01051793          	slli	a5,a0,0x10
 3bc:	0107d793          	srli	a5,a5,0x10
 3c0:	78079073          	csrw	mtohost,a5
 3c4:	0000006f          	j	3c4 <_init+0x20>

Disassembly of section .text.startup:

000003c8 <main>:
 3c8:	e4010113          	addi	sp,sp,-448
 3cc:	51400513          	li	a0,1300
 3d0:	1a112e23          	sw	ra,444(sp)
 3d4:	1a812c23          	sw	s0,440(sp)
 3d8:	1a912a23          	sw	s1,436(sp)
 3dc:	1b212823          	sw	s2,432(sp)
 3e0:	1b312623          	sw	s3,428(sp)
 3e4:	1b412423          	sw	s4,424(sp)
 3e8:	1b512223          	sw	s5,420(sp)
 3ec:	1b612023          	sw	s6,416(sp)
 3f0:	19712e23          	sw	s7,412(sp)
 3f4:	f3dff0ef          	jal	ra,330 <printStr>
 3f8:	c0002bf3          	rdcycle	s7
 3fc:	c0202b73          	rdinstret	s6
 400:	56000a13          	li	s4,1376
 404:	190a0493          	addi	s1,s4,400
 408:	00010a93          	mv	s5,sp
 40c:	56000413          	li	s0,1376
 410:	00048993          	mv	s3,s1
 414:	000a8913          	mv	s2,s5
 418:	0004a583          	lw	a1,0(s1)
 41c:	00042503          	lw	a0,0(s0)
 420:	00440413          	addi	s0,s0,4
 424:	00448493          	addi	s1,s1,4
 428:	e9dff0ef          	jal	ra,2c4 <multiply>
 42c:	00a92023          	sw	a0,0(s2)
 430:	00490913          	addi	s2,s2,4
 434:	ff3412e3          	bne	s0,s3,418 <main+0x50>
 438:	c00024f3          	rdcycle	s1
 43c:	417484b3          	sub	s1,s1,s7
 440:	c0202473          	rdinstret	s0
 444:	52800513          	li	a0,1320
 448:	ee9ff0ef          	jal	ra,330 <printStr>
 44c:	00048513          	mv	a0,s1
 450:	ea1ff0ef          	jal	ra,2f0 <printInt>
 454:	00a00513          	li	a0,10
 458:	ec1ff0ef          	jal	ra,318 <printChar>
 45c:	53400513          	li	a0,1332
 460:	ed1ff0ef          	jal	ra,330 <printStr>
 464:	41640433          	sub	s0,s0,s6
 468:	00040513          	mv	a0,s0
 46c:	e85ff0ef          	jal	ra,2f0 <printInt>
 470:	00a00513          	li	a0,10
 474:	ea5ff0ef          	jal	ra,318 <printChar>
 478:	00000413          	li	s0,0
 47c:	320a0793          	addi	a5,s4,800
 480:	06400613          	li	a2,100
 484:	00c0006f          	j	490 <main+0xc8>
 488:	00478793          	addi	a5,a5,4
 48c:	06c40063          	beq	s0,a2,4ec <main+0x124>
 490:	000aa683          	lw	a3,0(s5)
 494:	0007a703          	lw	a4,0(a5)
 498:	00140413          	addi	s0,s0,1
 49c:	004a8a93          	addi	s5,s5,4
 4a0:	fee684e3          	beq	a3,a4,488 <main+0xc0>
 4a4:	54000513          	li	a0,1344
 4a8:	e89ff0ef          	jal	ra,330 <printStr>
 4ac:	00040513          	mv	a0,s0
 4b0:	e41ff0ef          	jal	ra,2f0 <printInt>
 4b4:	00a00513          	li	a0,10
 4b8:	e61ff0ef          	jal	ra,318 <printChar>
 4bc:	1bc12083          	lw	ra,444(sp)
 4c0:	00040513          	mv	a0,s0
 4c4:	1b812403          	lw	s0,440(sp)
 4c8:	1b412483          	lw	s1,436(sp)
 4cc:	1b012903          	lw	s2,432(sp)
 4d0:	1ac12983          	lw	s3,428(sp)
 4d4:	1a812a03          	lw	s4,424(sp)
 4d8:	1a412a83          	lw	s5,420(sp)
 4dc:	1a012b03          	lw	s6,416(sp)
 4e0:	19c12b83          	lw	s7,412(sp)
 4e4:	1c010113          	addi	sp,sp,448
 4e8:	00008067          	ret
 4ec:	00000413          	li	s0,0
 4f0:	fb5ff06f          	j	4a4 <main+0xdc>
 4f4:	ff010113          	addi	sp,sp,-16
 4f8:	54800513          	li	a0,1352
 4fc:	00112623          	sw	ra,12(sp)
 500:	e31ff0ef          	jal	ra,330 <printStr>
 504:	00c12083          	lw	ra,12(sp)
 508:	fff00513          	li	a0,-1
 50c:	01010113          	addi	sp,sp,16
 510:	00008067          	ret
