
/home/adam/Documents/lab8/programs/benchmarks/../build/benchmarks/bin/vvadd.riscv:     file format elf32-littleriscv


Disassembly of section .text:

00000100 <user_trap_entry>:
 100:	1ac0006f          	j	2ac <trap_entry>
 104:	00000013          	nop
 108:	00000013          	nop
 10c:	00000013          	nop
 110:	00000013          	nop
 114:	00000013          	nop
 118:	00000013          	nop
 11c:	00000013          	nop
 120:	00000013          	nop
 124:	00000013          	nop
 128:	00000013          	nop
 12c:	00000013          	nop
 130:	00000013          	nop
 134:	00000013          	nop
 138:	00000013          	nop
 13c:	00000013          	nop

00000140 <supervisor_trap_entry>:
 140:	0000006f          	j	140 <supervisor_trap_entry>
 144:	00000013          	nop
 148:	00000013          	nop
 14c:	00000013          	nop
 150:	00000013          	nop
 154:	00000013          	nop
 158:	00000013          	nop
 15c:	00000013          	nop
 160:	00000013          	nop
 164:	00000013          	nop
 168:	00000013          	nop
 16c:	00000013          	nop
 170:	00000013          	nop
 174:	00000013          	nop
 178:	00000013          	nop
 17c:	00000013          	nop

00000180 <hypervisor_trap_entry>:
 180:	0000006f          	j	180 <hypervisor_trap_entry>
 184:	00000013          	nop
 188:	00000013          	nop
 18c:	00000013          	nop
 190:	00000013          	nop
 194:	00000013          	nop
 198:	00000013          	nop
 19c:	00000013          	nop
 1a0:	00000013          	nop
 1a4:	00000013          	nop
 1a8:	00000013          	nop
 1ac:	00000013          	nop
 1b0:	00000013          	nop
 1b4:	00000013          	nop
 1b8:	00000013          	nop
 1bc:	00000013          	nop

000001c0 <machine_trap_entry>:
 1c0:	0ec0006f          	j	2ac <trap_entry>
 1c4:	00000013          	nop
 1c8:	00000013          	nop
 1cc:	00000013          	nop
 1d0:	00000013          	nop
 1d4:	00000013          	nop
 1d8:	00000013          	nop
 1dc:	00000013          	nop
 1e0:	00000013          	nop
 1e4:	00000013          	nop
 1e8:	00000013          	nop
 1ec:	00000013          	nop
 1f0:	00000013          	nop
 1f4:	00000013          	nop
 1f8:	00000013          	nop
 1fc:	00000013          	nop

00000200 <_start>:
 200:	00000093          	li	ra,0
 204:	00000113          	li	sp,0
 208:	00000193          	li	gp,0
 20c:	00000213          	li	tp,0
 210:	00000293          	li	t0,0
 214:	00000313          	li	t1,0
 218:	00000393          	li	t2,0
 21c:	00000413          	li	s0,0
 220:	00000493          	li	s1,0
 224:	00000513          	li	a0,0
 228:	00000593          	li	a1,0
 22c:	00000613          	li	a2,0
 230:	00000693          	li	a3,0
 234:	00000713          	li	a4,0
 238:	00000793          	li	a5,0
 23c:	00000813          	li	a6,0
 240:	00000893          	li	a7,0
 244:	00000913          	li	s2,0
 248:	00000993          	li	s3,0
 24c:	00000a13          	li	s4,0
 250:	00000a93          	li	s5,0
 254:	00000b13          	li	s6,0
 258:	00000b93          	li	s7,0
 25c:	00000c13          	li	s8,0
 260:	00000c93          	li	s9,0
 264:	00000d13          	li	s10,0
 268:	00000d93          	li	s11,0
 26c:	00000e13          	li	t3,0
 270:	00000e93          	li	t4,0
 274:	00000f13          	li	t5,0
 278:	00000f93          	li	t6,0
 27c:	00002197          	auipc	gp,0x2
 280:	8d018193          	addi	gp,gp,-1840 # 1b4c <_gp_ptr>
 284:	00001217          	auipc	tp,0x1
 288:	10720213          	addi	tp,tp,263 # 138b <_end+0x3f>
 28c:	fc027213          	andi	tp,tp,-64
 290:	f1402573          	csrr	a0,mhartid
 294:	01151613          	slli	a2,a0,0x11
 298:	00c20233          	add	tp,tp,a2
 29c:	00150113          	addi	sp,a0,1
 2a0:	01111113          	slli	sp,sp,0x11
 2a4:	00410133          	add	sp,sp,tp
 2a8:	1000006f          	j	3a8 <_init>

000002ac <trap_entry>:
 2ac:	0000006f          	j	2ac <trap_entry>
 2b0:	0000                	.2byte	0x0
 2b2:	0000                	.2byte	0x0
 2b4:	0000                	.2byte	0x0
 2b6:	0000                	.2byte	0x0
 2b8:	0000                	.2byte	0x0
 2ba:	0000                	.2byte	0x0
 2bc:	0000                	.2byte	0x0
 2be:	0000                	.2byte	0x0
 2c0:	0000                	.2byte	0x0
 2c2:	0000                	.2byte	0x0

000002c4 <vvadd>:
 2c4:	02a05663          	blez	a0,2f0 <vvadd+0x2c>
 2c8:	00251513          	slli	a0,a0,0x2
 2cc:	00a58533          	add	a0,a1,a0
 2d0:	0005a783          	lw	a5,0(a1)
 2d4:	00062703          	lw	a4,0(a2)
 2d8:	00458593          	addi	a1,a1,4
 2dc:	00460613          	addi	a2,a2,4
 2e0:	00e787b3          	add	a5,a5,a4
 2e4:	00f6a023          	sw	a5,0(a3)
 2e8:	00468693          	addi	a3,a3,4
 2ec:	fea592e3          	bne	a1,a0,2d0 <vvadd+0xc>
 2f0:	00008067          	ret

000002f4 <printInt>:
 2f4:	01051793          	slli	a5,a0,0x10
 2f8:	00020737          	lui	a4,0x20
 2fc:	0107d793          	srli	a5,a5,0x10
 300:	00e7e7b3          	or	a5,a5,a4
 304:	78079073          	csrw	mtohost,a5
 308:	000307b7          	lui	a5,0x30
 30c:	01055513          	srli	a0,a0,0x10
 310:	00f56533          	or	a0,a0,a5
 314:	78051073          	csrw	mtohost,a0
 318:	00008067          	ret

0000031c <printChar>:
 31c:	01051513          	slli	a0,a0,0x10
 320:	000107b7          	lui	a5,0x10
 324:	01055513          	srli	a0,a0,0x10
 328:	00f56533          	or	a0,a0,a5
 32c:	78051073          	csrw	mtohost,a0
 330:	00008067          	ret

00000334 <printStr>:
 334:	ffc57793          	andi	a5,a0,-4
 338:	0007a683          	lw	a3,0(a5) # 10000 <_gp_ptr+0xe4b4>
 33c:	00351713          	slli	a4,a0,0x3
 340:	01877713          	andi	a4,a4,24
 344:	0ff00793          	li	a5,255
 348:	00e797b3          	sll	a5,a5,a4
 34c:	00d7f7b3          	and	a5,a5,a3
 350:	00e7d7b3          	srl	a5,a5,a4
 354:	04078063          	beqz	a5,394 <printStr+0x60>
 358:	00010637          	lui	a2,0x10
 35c:	fff60813          	addi	a6,a2,-1 # ffff <_gp_ptr+0xe4b3>
 360:	0ff00593          	li	a1,255
 364:	0107f7b3          	and	a5,a5,a6
 368:	00c7e7b3          	or	a5,a5,a2
 36c:	78079073          	csrw	mtohost,a5
 370:	00150513          	addi	a0,a0,1
 374:	ffc57793          	andi	a5,a0,-4
 378:	0007a683          	lw	a3,0(a5)
 37c:	00351713          	slli	a4,a0,0x3
 380:	01877713          	andi	a4,a4,24
 384:	00e597b3          	sll	a5,a1,a4
 388:	00d7f7b3          	and	a5,a5,a3
 38c:	00e7d7b3          	srl	a5,a5,a4
 390:	fc079ae3          	bnez	a5,364 <printStr+0x30>
 394:	00008067          	ret

00000398 <toHostExit>:
 398:	01051793          	slli	a5,a0,0x10
 39c:	0107d793          	srli	a5,a5,0x10
 3a0:	78079073          	csrw	mtohost,a5
 3a4:	0000006f          	j	3a4 <toHostExit+0xc>

000003a8 <_init>:
 3a8:	ff010113          	addi	sp,sp,-16
 3ac:	00000593          	li	a1,0
 3b0:	00000513          	li	a0,0
 3b4:	00112623          	sw	ra,12(sp)
 3b8:	014000ef          	jal	ra,3cc <main>
 3bc:	01051793          	slli	a5,a0,0x10
 3c0:	0107d793          	srli	a5,a5,0x10
 3c4:	78079073          	csrw	mtohost,a5
 3c8:	0000006f          	j	3c8 <_init+0x20>

Disassembly of section .text.startup:

000003cc <main>:
 3cc:	b4010113          	addi	sp,sp,-1216
 3d0:	4f000513          	li	a0,1264
 3d4:	4a112e23          	sw	ra,1212(sp)
 3d8:	4a812c23          	sw	s0,1208(sp)
 3dc:	4a912a23          	sw	s1,1204(sp)
 3e0:	4b212823          	sw	s2,1200(sp)
 3e4:	f51ff0ef          	jal	ra,334 <printStr>
 3e8:	c0002573          	rdcycle	a0
 3ec:	c02028f3          	rdinstret	a7
 3f0:	53c00793          	li	a5,1340
 3f4:	4b078693          	addi	a3,a5,1200
 3f8:	00010493          	mv	s1,sp
 3fc:	00068813          	mv	a6,a3
 400:	00048613          	mv	a2,s1
 404:	0007a703          	lw	a4,0(a5)
 408:	0006a583          	lw	a1,0(a3)
 40c:	00478793          	addi	a5,a5,4
 410:	00468693          	addi	a3,a3,4
 414:	00b70733          	add	a4,a4,a1
 418:	00e62023          	sw	a4,0(a2)
 41c:	00460613          	addi	a2,a2,4
 420:	ff0792e3          	bne	a5,a6,404 <main+0x38>
 424:	c0002973          	rdcycle	s2
 428:	40a90933          	sub	s2,s2,a0
 42c:	c0202473          	rdinstret	s0
 430:	50400513          	li	a0,1284
 434:	41140433          	sub	s0,s0,a7
 438:	efdff0ef          	jal	ra,334 <printStr>
 43c:	00090513          	mv	a0,s2
 440:	eb5ff0ef          	jal	ra,2f4 <printInt>
 444:	00a00513          	li	a0,10
 448:	ed5ff0ef          	jal	ra,31c <printChar>
 44c:	51000513          	li	a0,1296
 450:	ee5ff0ef          	jal	ra,334 <printStr>
 454:	00040513          	mv	a0,s0
 458:	e9dff0ef          	jal	ra,2f4 <printInt>
 45c:	00a00513          	li	a0,10
 460:	ebdff0ef          	jal	ra,31c <printChar>
 464:	000017b7          	lui	a5,0x1
 468:	e9c78793          	addi	a5,a5,-356 # e9c <verify_data>
 46c:	00000413          	li	s0,0
 470:	12c00613          	li	a2,300
 474:	00c0006f          	j	480 <main+0xb4>
 478:	00478793          	addi	a5,a5,4
 47c:	04c40663          	beq	s0,a2,4c8 <main+0xfc>
 480:	0004a683          	lw	a3,0(s1)
 484:	0007a703          	lw	a4,0(a5)
 488:	00140413          	addi	s0,s0,1
 48c:	00448493          	addi	s1,s1,4
 490:	fee684e3          	beq	a3,a4,478 <main+0xac>
 494:	51c00513          	li	a0,1308
 498:	e9dff0ef          	jal	ra,334 <printStr>
 49c:	00040513          	mv	a0,s0
 4a0:	e55ff0ef          	jal	ra,2f4 <printInt>
 4a4:	00a00513          	li	a0,10
 4a8:	e75ff0ef          	jal	ra,31c <printChar>
 4ac:	4bc12083          	lw	ra,1212(sp)
 4b0:	00040513          	mv	a0,s0
 4b4:	4b812403          	lw	s0,1208(sp)
 4b8:	4b412483          	lw	s1,1204(sp)
 4bc:	4b012903          	lw	s2,1200(sp)
 4c0:	4c010113          	addi	sp,sp,1216
 4c4:	00008067          	ret
 4c8:	00000413          	li	s0,0
 4cc:	fc9ff06f          	j	494 <main+0xc8>
 4d0:	ff010113          	addi	sp,sp,-16
 4d4:	52400513          	li	a0,1316
 4d8:	00112623          	sw	ra,12(sp)
 4dc:	e59ff0ef          	jal	ra,334 <printStr>
 4e0:	00c12083          	lw	ra,12(sp)
 4e4:	fff00513          	li	a0,-1
 4e8:	01010113          	addi	sp,sp,16
 4ec:	00008067          	ret

Disassembly of section .data:

0000053c <input1_data>:
     53c:	00000029 00000341 00000234 000000bb     )...A...4.......
     54c:	000002ed 0000015e 00000084 000003b5     ....^...........
     55c:	00000248 00000325 0000026d 00000006     H...%...m.......
     56c:	000003a3 0000037a 00000188 000002b6     ....z...........
     57c:	000003c1 0000006e 00000074 00000128     ....n...t...(...
     58c:	000001aa 0000013a 00000293 00000306     ....:...........
     59c:	0000013f 000002a6 0000036b 00000178     ?.......k...x...
     5ac:	000001da 000003aa 0000021b 00000239     ............9...
     5bc:	000000cb 00000118 000002f7 0000025e     ............^...
     5cc:	000001ff 00000291 000000c3 00000051     ............Q...
     5dc:	0000010b 000000e5 00000151 000003b0     ........Q.......
     5ec:	00000386 000000f1 00000391 0000033a     ............:...
     5fc:	000003a5 000003d9 000000c3 000003c0     ................
     60c:	00000236 0000015e 00000289 00000291     6...^...........
     61c:	000000b5 0000006f 0000035b 00000041     ....o...[...A...
     62c:	00000120 0000015d 0000008d 00000389      ...]...........
     63c:	00000376 00000108 00000240 000003d3     v.......@.......
     64c:	000002f9 000000f1 000001de 000001f3     ................
     65c:	00000193 000000de 000001bc 000002d1     ................
     66c:	000002a4 0000013d 000000e0 000003a9     ....=...........
     67c:	00000120 00000077 00000267 0000025e      ...w...g...^...
     68c:	00000185 0000015f 000001c7 00000116     ...._...........
     69c:	0000016f 00000166 00000248 0000003e     o...f...H...>...
     6ac:	000003d9 00000193 0000015a 00000205     ........Z.......
     6bc:	0000022f 0000038c 00000307 000000ff     /...............
     6cc:	0000030a 00000256 0000008f 00000021     ....V.......!...
     6dc:	0000007d 000003ad 000003a5 0000031f     }...............
     6ec:	00000229 000001af 00000288 000003b8     )...............
     6fc:	0000011f 00000013 00000031 00000056     ........1...V...
     70c:	0000005f 000001b9 0000024b 00000266     _.......K...f...
     71c:	0000017e 00000118 00000328 000003cb     ~.......(.......
     72c:	00000333 00000158 000001c2 00000200     3...X...........
     73c:	000003c5 0000015b 00000328 00000372     ....[...(...r...
     74c:	00000219 000003b2 000002bd 00000164     ............d...
     75c:	00000237 0000037b 00000016 00000238     7...{.......8...
     76c:	00000299 000001a7 000001b2 0000009e     ................
     77c:	00000002 00000054 000000f7 00000031     ....T.......1...
     78c:	000001b3 00000318 00000365 000001e6     ........e.......
     79c:	0000019e 00000171 00000224 00000206     ....q...$.......
     7ac:	00000378 000002aa 0000011c 00000108     x...............
     7bc:	000001f3 00000122 00000381 000000d7     ...."...........
     7cc:	000002db 000002b0 000000fb 00000312     ................
     7dc:	0000022b 0000012e 00000210 00000220     +........... ...
     7ec:	00000142 000003b3 0000011f 00000338     B...........8...
     7fc:	00000130 00000314 000002dd 000003bf     0...............
     80c:	0000016e 000002d2 00000126 000003cf     n.......&.......
     81c:	0000028d 000002ec 0000005b 0000017a     ........[...z...
     82c:	00000069 00000066 0000017d 0000028b     i...f...}.......
     83c:	00000339 00000348 00000164 00000094     9...H...d.......
     84c:	00000036 0000008c 000003bb 00000157     6...........W...
     85c:	00000215 000002f5 00000209 00000345     ............E...
     86c:	00000250 0000000d 000000ad 0000003f     P...........?...
     87c:	00000079 00000085 000002f6 00000174     y...........t...
     88c:	000003b7 00000027 00000081 0000006e     ....'.......n...
     89c:	0000034f 000001b5 000000ff 0000010d     O...............
     8ac:	00000199 00000274 0000018f 00000225     ....t.......%...
     8bc:	000002f1 00000234 000000ab 00000013     ....4...........
     8cc:	000002d7 000001f5 00000309 0000002b     ............+...
     8dc:	000002f1 00000051 000000ca 00000355     ....Q.......U...
     8ec:	00000099 000002f8 00000165 000003af     ........e.......
     8fc:	0000039a 00000148 000001f0 000001ba     ....H...........
     90c:	00000204 00000281 00000114 00000312     ................
     91c:	00000071 0000034a 0000038b 00000113     q...J...........
     92c:	000000ed 00000020 00000310 00000235     .... .......5...
     93c:	00000165 00000323 00000333 000002ef     e...#...3.......
     94c:	00000118 00000055 000001ca 000001c6     ....U...........
     95c:	000002c6 000001cb 00000029 000000fd     ........).......
     96c:	00000179 000001fc 000002bc 0000035c     y...........\...
     97c:	000001e0 000002e5 000001f3 000002c5     ................
     98c:	00000031 00000173 00000369 000003b1     1...s...i.......
     99c:	000003e0 0000020e 000002d1 000001b3     ................
     9ac:	000000e8 000001f1 000002b9 0000001e     ................
     9bc:	0000015c 000000fa 0000015e 000000fa     \.......^.......
     9cc:	0000023d 00000310 000002ed 000001f6     =...............
     9dc:	00000337 0000033a 000000aa 000000a0     7...:...........

000009ec <input2_data>:
     9ec:	000001c6 0000014f 00000001 000003dd     ....O...........
     9fc:	0000016d 0000023c 00000040 00000099     m...<...@.......
     a0c:	000000d8 0000008c 000000d2 0000023c     ............<...
     a1c:	00000153 00000251 00000382 000000e4     S...Q...........
     a2c:	0000000c 00000373 000002ee 00000286     ....s...........
     a3c:	000001f4 000001b4 000002bd 0000032c     ............,...
     a4c:	000003d5 00000096 000002b8 00000234     ............4...
     a5c:	00000110 00000102 00000287 000001fd     ................
     a6c:	00000058 000002bf 0000029d 00000177     X...........w...
     a7c:	00000227 000003a8 00000250 00000239     '.......P...9...
     a8c:	000003b8 00000320 00000248 00000283     .... ...H.......
     a9c:	00000170 000001e9 00000148 00000139     p.......H...9...
     aac:	00000250 00000184 0000021f 00000289     P...............
     abc:	000003d3 000003e5 0000032e 0000004f     ............O...
     acc:	000000d0 000003e6 00000275 0000034f     ........u...O...
     adc:	000002c0 000003e5 000000fd 000002cb     ................
     aec:	000001ae 0000019f 0000021a 000002bc     ................
     afc:	00000004 000001ee 00000064 00000360     ........d...`...
     b0c:	000002b5 000001a0 00000128 0000011d     ........(.......
     b1c:	0000026c 0000004e 0000015f 0000021c     l...N..._.......
     b2c:	00000286 000000a9 0000020f 00000121     ............!...
     b3c:	0000031c 00000321 000002d0 000002f6     ....!...........
     b4c:	000002e9 0000005c 000003dd 0000010f     ....\...........
     b5c:	00000355 00000314 00000213 000000de     U...............
     b6c:	000001cd 000000f1 00000166 0000014c     ........f...L...
     b7c:	000002ac 000002e4 000001be 00000137     ............7...
     b8c:	000002e7 0000022d 000001df 0000022d     ....-.......-...
     b9c:	0000039d 0000031c 00000165 0000037b     ........e...{...
     bac:	0000029a 00000202 0000022d 00000366     ........-...f...
     bbc:	00000355 000001b8 0000003d 000002a6     U.......=.......
     bcc:	0000018c 00000009 00000011 000000aa     ................
     bdc:	00000123 0000017c 00000218 000000b9     #...|...........
     bec:	00000395 0000021b 000003d7 00000377     ............w...
     bfc:	00000036 00000264 000003b7 000001df     6...d...........
     c0c:	00000097 00000007 00000281 0000014f     ............O...
     c1c:	000002da 0000005f 000002d8 00000118     ...._...........
     c2c:	0000018b 000002b0 0000038f 000001dc     ................
     c3c:	0000032f 000002d9 00000109 0000007f     /...............
     c4c:	000000ec 000000d6 000000b4 00000006     ................
     c5c:	000001f7 00000254 000000ad 00000283     ....T...........
     c6c:	0000015a 00000257 00000044 00000351     Z...W...D...Q...
     c7c:	00000292 0000026b 00000079 00000083     ....k...y.......
     c8c:	0000033c 0000029b 000001b1 000001e7     <...............
     c9c:	000002f1 0000007d 00000272 0000000e     ....}...r.......
     cac:	0000000a 00000193 0000006a 000002bf     ........j.......
     cbc:	00000332 000003c4 00000196 0000036a     2...........j...
     ccc:	00000358 00000056 0000003c 00000294     X...V...<.......
     cdc:	0000029b 00000099 00000079 00000062     ........y...b...
     cec:	0000019c 000000ec 0000000c 000001a7     ................
     cfc:	000003c5 000000d8 0000026d 00000169     ........m...i...
     d0c:	00000399 000002cb 00000287 0000012b     ............+...
     d1c:	00000376 000002aa 00000024 000001ed     v.......$.......
     d2c:	00000227 00000219 000003c9 00000283     '...............
     d3c:	000001b2 0000019f 0000012f 000001b6     ......../.......
     d4c:	0000035c 000000cb 000001de 000003dc     \...............
     d5c:	000002a3 000002cf 000003de 00000152     ............R...
     d6c:	000001c2 00000279 0000009b 00000286     ....y...........
     d7c:	000001c4 000001ab 000001fd 000003dc     ................
     d8c:	000001aa 0000000c 000001e3 0000008e     ................
     d9c:	00000153 00000186 00000032 000000ab     S.......2.......
     dac:	00000259 00000069 000003c8 00000079     Y...i.......y...
     dbc:	0000036f 00000051 00000366 00000258     o...Q...f...X...
     dcc:	0000025b 00000367 00000377 00000262     [...g...w...b...
     ddc:	00000194 000000ea 000002e9 0000020e     ................
     dec:	00000113 000001b9 000000e2 000002f0     ................
     dfc:	000003af 000002d6 000002c5 000000c9     ................
     e0c:	00000036 000002f6 00000035 0000018d     6.......5.......
     e1c:	00000029 0000008d 000001a0 000002eb     )...............
     e2c:	000000db 000001de 00000302 000000b4     ................
     e3c:	000001e2 000002b3 000002d5 000000ad     ................
     e4c:	000000ba 00000392 00000001 000003c3     ................
     e5c:	000000f7 000001d0 0000016a 00000209     ........j.......
     e6c:	000000e9 00000078 00000028 0000030b     ....x...(.......
     e7c:	000000c3 000000a1 000002e7 000001b7     ................
     e8c:	00000163 00000193 0000008d 00000279     c...........y...

00000e9c <verify_data>:
     e9c:	000001ef 00000490 00000235 00000498     ........5.......
     eac:	0000045a 0000039a 000000c4 0000044e     Z...........N...
     ebc:	00000320 000003b1 0000033f 00000242      .......?...B...
     ecc:	000004f6 000005cb 0000050a 0000039a     ................
     edc:	000003cd 000003e1 00000362 000003ae     ........b.......
     eec:	0000039e 000002ee 00000550 00000632     ........P...2...
     efc:	00000514 0000033c 00000623 000003ac     ....<...#.......
     f0c:	000002ea 000004ac 000004a2 00000436     ............6...
     f1c:	00000123 000003d7 00000594 000003d5     #...............
     f2c:	00000426 00000639 00000313 0000028a     &...9...........
     f3c:	000004c3 00000405 00000399 00000633     ............3...
     f4c:	000004f6 000002da 000004d9 00000473     ............s...
     f5c:	000005f5 0000055d 000002e2 00000649     ....].......I...
     f6c:	00000609 00000543 000005b7 000002e0     ....C...........
     f7c:	00000185 00000455 000005d0 00000390     ....U...........
     f8c:	000003e0 00000542 0000018a 00000654     ....B.......T...
     f9c:	00000524 000002a7 0000045a 0000068f     $.......Z.......
     fac:	000002fd 000002df 00000242 00000553     ........B...S...
     fbc:	00000448 0000027e 000002e4 000003ee     H...~...........
     fcc:	00000510 0000018b 0000023f 000005c5     ........?.......
     fdc:	000003a6 00000120 00000476 0000037f     .... ...v.......
     fec:	000004a1 00000480 00000497 0000040c     ................
     ffc:	00000458 000001c2 00000625 0000014d     X.......%...M...
    100c:	0000072e 000004a7 0000036d 000002e3     ........m.......
    101c:	000003fc 0000047d 0000046d 0000024b     ....}...m...K...
    102c:	000005b6 0000053a 0000024d 00000158     ....:...M...X...
    103c:	00000364 000005da 00000584 0000054c     d...........L...
    104c:	000005c6 000004cb 000003ed 00000733     ............3...
    105c:	000003b9 00000215 0000025e 000003bc     ........^.......
    106c:	000003b4 00000371 00000288 0000050c     ....q...........
    107c:	0000030a 00000121 00000339 00000475     ....!...9...u...
    108c:	00000456 000002d4 000003da 000002b9     V...............
    109c:	0000075a 00000376 000006ff 000006e9     Z...v...........
    10ac:	0000024f 00000616 00000674 00000343     O.......t...C...
    10bc:	000002ce 00000382 00000297 00000387     ................
    10cc:	00000573 00000206 0000048a 000001b6     s...............
    10dc:	0000018d 00000304 00000486 0000020d     ................
    10ec:	000004e2 000005f1 0000046e 00000265     ........n...e...
    10fc:	0000028a 00000247 000002d8 0000020c     ....G...........
    110c:	0000056f 000004fe 000001c9 0000038b     o...............
    111c:	0000034d 00000379 000003c5 00000428     M...y.......(...
    112c:	0000056d 0000051b 00000174 00000395     m.......t.......
    113c:	00000567 000003c9 000003c1 00000407     g...............
    114c:	00000433 00000430 00000391 00000346     3...0.......F...
    115c:	0000013a 000004a7 00000347 0000067e     :.......G...~...
    116c:	000004a0 00000696 000002bc 00000739     ............9...
    117c:	000005e5 00000342 00000097 0000040e     ....B...........
    118c:	00000304 000000ff 000001f6 000002ed     ................
    119c:	000004d5 00000434 00000170 0000023b     ....4...p...;...
    11ac:	000003fb 00000164 00000628 000002c0     ....d...(.......
    11bc:	000005ae 000005c0 00000490 00000470     ............p...
    11cc:	000005c6 000002b7 000000d1 0000022c     ............,...
    11dc:	000002a0 0000029e 000006bf 000003f7     ................
    11ec:	00000569 000001c6 000001b0 00000224     i...........$...
    11fc:	000006ab 00000280 000002dd 000004e9     ................
    120c:	0000043c 00000543 0000056d 00000377     <...C...m...w...
    121c:	000004b3 000004ad 00000146 00000299     ........F.......
    122c:	0000049b 000003a0 00000506 00000407     ................
    123c:	0000049b 0000005d 000002ad 000003e3     ....]...........
    124c:	000001ec 0000047e 00000197 0000045a     ....~.......Z...
    125c:	000005f3 000001b1 000005b8 00000233     ............3...
    126c:	00000573 000002d2 0000047a 0000056a     s.......z...j...
    127c:	000002cc 000006b1 00000702 00000375     ............u...
    128c:	00000281 0000010a 000005f9 00000443     ............C...
    129c:	00000278 000004dc 00000415 000005df     x...............
    12ac:	000004c7 0000032b 0000048f 0000028f     ....+...........
    12bc:	000002fc 000004c1 0000005e 0000028a     ........^.......
    12cc:	000001a2 00000289 0000045c 00000647     ........\...G...
    12dc:	000002bb 000004c3 000004f5 00000379     ............y...
    12ec:	00000213 00000426 0000063e 0000045e     ....&...>...^...
    12fc:	0000049a 000005a0 000002d2 00000576     ............v...
    130c:	000001df 000003c1 00000423 00000227     ........#...'...
    131c:	00000245 00000172 00000186 00000405     E...r...........
    132c:	00000300 000003b1 000005d4 000003ad     ................
    133c:	0000049a 000004cd 00000137 00000319     ........7.......
