
/home/adam/Documents/lab8/programs/benchmarks/../build/benchmarks/bin/vvadd.riscv:     file format elf32-littleriscv


Disassembly of section .text:

00000100 <user_trap_entry>:
 100:	1ac0006f          	j	2ac <trap_entry>
 104:	00000013          	nop
 108:	00000013          	nop
 10c:	00000013          	nop
 110:	00000013          	nop
 114:	00000013          	nop
 118:	00000013          	nop
 11c:	00000013          	nop
 120:	00000013          	nop
 124:	00000013          	nop
 128:	00000013          	nop
 12c:	00000013          	nop
 130:	00000013          	nop
 134:	00000013          	nop
 138:	00000013          	nop
 13c:	00000013          	nop

00000140 <supervisor_trap_entry>:
 140:	0000006f          	j	140 <supervisor_trap_entry>
 144:	00000013          	nop
 148:	00000013          	nop
 14c:	00000013          	nop
 150:	00000013          	nop
 154:	00000013          	nop
 158:	00000013          	nop
 15c:	00000013          	nop
 160:	00000013          	nop
 164:	00000013          	nop
 168:	00000013          	nop
 16c:	00000013          	nop
 170:	00000013          	nop
 174:	00000013          	nop
 178:	00000013          	nop
 17c:	00000013          	nop

00000180 <hypervisor_trap_entry>:
 180:	0000006f          	j	180 <hypervisor_trap_entry>
 184:	00000013          	nop
 188:	00000013          	nop
 18c:	00000013          	nop
 190:	00000013          	nop
 194:	00000013          	nop
 198:	00000013          	nop
 19c:	00000013          	nop
 1a0:	00000013          	nop
 1a4:	00000013          	nop
 1a8:	00000013          	nop
 1ac:	00000013          	nop
 1b0:	00000013          	nop
 1b4:	00000013          	nop
 1b8:	00000013          	nop
 1bc:	00000013          	nop

000001c0 <machine_trap_entry>:
 1c0:	0ec0006f          	j	2ac <trap_entry>
 1c4:	00000013          	nop
 1c8:	00000013          	nop
 1cc:	00000013          	nop
 1d0:	00000013          	nop
 1d4:	00000013          	nop
 1d8:	00000013          	nop
 1dc:	00000013          	nop
 1e0:	00000013          	nop
 1e4:	00000013          	nop
 1e8:	00000013          	nop
 1ec:	00000013          	nop
 1f0:	00000013          	nop
 1f4:	00000013          	nop
 1f8:	00000013          	nop
 1fc:	00000013          	nop

00000200 <_start>:
 200:	00000093          	li	ra,0
 204:	00000113          	li	sp,0
 208:	00000193          	li	gp,0
 20c:	00000213          	li	tp,0
 210:	00000293          	li	t0,0
 214:	00000313          	li	t1,0
 218:	00000393          	li	t2,0
 21c:	00000413          	li	s0,0
 220:	00000493          	li	s1,0
 224:	00000513          	li	a0,0
 228:	00000593          	li	a1,0
 22c:	00000613          	li	a2,0
 230:	00000693          	li	a3,0
 234:	00000713          	li	a4,0
 238:	00000793          	li	a5,0
 23c:	00000813          	li	a6,0
 240:	00000893          	li	a7,0
 244:	00000913          	li	s2,0
 248:	00000993          	li	s3,0
 24c:	00000a13          	li	s4,0
 250:	00000a93          	li	s5,0
 254:	00000b13          	li	s6,0
 258:	00000b93          	li	s7,0
 25c:	00000c13          	li	s8,0
 260:	00000c93          	li	s9,0
 264:	00000d13          	li	s10,0
 268:	00000d93          	li	s11,0
 26c:	00000e13          	li	t3,0
 270:	00000e93          	li	t4,0
 274:	00000f13          	li	t5,0
 278:	00000f93          	li	t6,0
 27c:	00002197          	auipc	gp,0x2
 280:	8d018193          	addi	gp,gp,-1840 # 1b4c <_gp_ptr>
 284:	00001217          	auipc	tp,0x1
 288:	10720213          	addi	tp,tp,263 # 138b <_end+0x3f>
 28c:	fc027213          	andi	tp,tp,-64
 290:	f1402573          	csrr	a0,mhartid
 294:	01151613          	slli	a2,a0,0x11
 298:	00c20233          	add	tp,tp,a2
 29c:	00150113          	addi	sp,a0,1
 2a0:	01111113          	slli	sp,sp,0x11
 2a4:	00410133          	add	sp,sp,tp
 2a8:	1000006f          	j	3a8 <_init>

000002ac <trap_entry>:
 2ac:	0000006f          	j	2ac <trap_entry>
 2b0:	0000                	.2byte	0x0
 2b2:	0000                	.2byte	0x0
 2b4:	0000                	.2byte	0x0
 2b6:	0000                	.2byte	0x0
 2b8:	0000                	.2byte	0x0
 2ba:	0000                	.2byte	0x0
 2bc:	0000                	.2byte	0x0
 2be:	0000                	.2byte	0x0
 2c0:	0000                	.2byte	0x0
 2c2:	0000                	.2byte	0x0

000002c4 <vvadd>:
 2c4:	02a05663          	blez	a0,2f0 <vvadd+0x2c>
 2c8:	00251513          	slli	a0,a0,0x2
 2cc:	00a58533          	add	a0,a1,a0
 2d0:	0005a783          	lw	a5,0(a1)
 2d4:	00062703          	lw	a4,0(a2)
 2d8:	00458593          	addi	a1,a1,4
 2dc:	00460613          	addi	a2,a2,4
 2e0:	00e787b3          	add	a5,a5,a4
 2e4:	00f6a023          	sw	a5,0(a3)
 2e8:	00468693          	addi	a3,a3,4
 2ec:	fea592e3          	bne	a1,a0,2d0 <vvadd+0xc>
 2f0:	00008067          	ret

000002f4 <printInt>:
 2f4:	01051793          	slli	a5,a0,0x10
 2f8:	00020737          	lui	a4,0x20
 2fc:	0107d793          	srli	a5,a5,0x10
 300:	00e7e7b3          	or	a5,a5,a4
 304:	78079073          	csrw	mtohost,a5
 308:	000307b7          	lui	a5,0x30
 30c:	01055513          	srli	a0,a0,0x10
 310:	00f56533          	or	a0,a0,a5
 314:	78051073          	csrw	mtohost,a0
 318:	00008067          	ret

0000031c <printChar>:
 31c:	01051513          	slli	a0,a0,0x10
 320:	000107b7          	lui	a5,0x10
 324:	01055513          	srli	a0,a0,0x10
 328:	00f56533          	or	a0,a0,a5
 32c:	78051073          	csrw	mtohost,a0
 330:	00008067          	ret

00000334 <printStr>:
 334:	ffc57793          	andi	a5,a0,-4
 338:	0007a683          	lw	a3,0(a5) # 10000 <_gp_ptr+0xe4b4>
 33c:	00351713          	slli	a4,a0,0x3
 340:	01877713          	andi	a4,a4,24
 344:	0ff00793          	li	a5,255
 348:	00e797b3          	sll	a5,a5,a4
 34c:	00d7f7b3          	and	a5,a5,a3
 350:	00e7d7b3          	srl	a5,a5,a4
 354:	04078063          	beqz	a5,394 <printStr+0x60>
 358:	00010637          	lui	a2,0x10
 35c:	fff60813          	addi	a6,a2,-1 # ffff <_gp_ptr+0xe4b3>
 360:	0ff00593          	li	a1,255
 364:	0107f7b3          	and	a5,a5,a6
 368:	00c7e7b3          	or	a5,a5,a2
 36c:	78079073          	csrw	mtohost,a5
 370:	00150513          	addi	a0,a0,1
 374:	ffc57793          	andi	a5,a0,-4
 378:	0007a683          	lw	a3,0(a5)
 37c:	00351713          	slli	a4,a0,0x3
 380:	01877713          	andi	a4,a4,24
 384:	00e597b3          	sll	a5,a1,a4
 388:	00d7f7b3          	and	a5,a5,a3
 38c:	00e7d7b3          	srl	a5,a5,a4
 390:	fc079ae3          	bnez	a5,364 <printStr+0x30>
 394:	00008067          	ret

00000398 <toHostExit>:
 398:	01051793          	slli	a5,a0,0x10
 39c:	0107d793          	srli	a5,a5,0x10
 3a0:	78079073          	csrw	mtohost,a5
 3a4:	0000006f          	j	3a4 <toHostExit+0xc>

000003a8 <_init>:
 3a8:	ff010113          	addi	sp,sp,-16
 3ac:	00000593          	li	a1,0
 3b0:	00000513          	li	a0,0
 3b4:	00112623          	sw	ra,12(sp)
 3b8:	014000ef          	jal	ra,3cc <main>
 3bc:	01051793          	slli	a5,a0,0x10
 3c0:	0107d793          	srli	a5,a5,0x10
 3c4:	78079073          	csrw	mtohost,a5
 3c8:	0000006f          	j	3c8 <_init+0x20>

Disassembly of section .text.startup:

000003cc <main>:
 3cc:	b4010113          	addi	sp,sp,-1216
 3d0:	4f000513          	li	a0,1264
 3d4:	4a112e23          	sw	ra,1212(sp)
 3d8:	4a812c23          	sw	s0,1208(sp)
 3dc:	4a912a23          	sw	s1,1204(sp)
 3e0:	4b212823          	sw	s2,1200(sp)
 3e4:	f51ff0ef          	jal	ra,334 <printStr>
 3e8:	c0002573          	rdcycle	a0
 3ec:	c02028f3          	rdinstret	a7
 3f0:	53c00793          	li	a5,1340
 3f4:	4b078693          	addi	a3,a5,1200
 3f8:	00010493          	mv	s1,sp
 3fc:	00068813          	mv	a6,a3
 400:	00048613          	mv	a2,s1
 404:	0007a703          	lw	a4,0(a5)
 408:	0006a583          	lw	a1,0(a3)
 40c:	00478793          	addi	a5,a5,4
 410:	00468693          	addi	a3,a3,4
 414:	00b70733          	add	a4,a4,a1
 418:	00e62023          	sw	a4,0(a2)
 41c:	00460613          	addi	a2,a2,4
 420:	ff0792e3          	bne	a5,a6,404 <main+0x38>
 424:	c0002973          	rdcycle	s2
 428:	40a90933          	sub	s2,s2,a0
 42c:	c0202473          	rdinstret	s0
 430:	50400513          	li	a0,1284
 434:	41140433          	sub	s0,s0,a7
 438:	efdff0ef          	jal	ra,334 <printStr>
 43c:	00090513          	mv	a0,s2
 440:	eb5ff0ef          	jal	ra,2f4 <printInt>
 444:	00a00513          	li	a0,10
 448:	ed5ff0ef          	jal	ra,31c <printChar>
 44c:	51000513          	li	a0,1296
 450:	ee5ff0ef          	jal	ra,334 <printStr>
 454:	00040513          	mv	a0,s0
 458:	e9dff0ef          	jal	ra,2f4 <printInt>
 45c:	00a00513          	li	a0,10
 460:	ebdff0ef          	jal	ra,31c <printChar>
 464:	000017b7          	lui	a5,0x1
 468:	e9c78793          	addi	a5,a5,-356 # e9c <verify_data>
 46c:	00000413          	li	s0,0
 470:	12c00613          	li	a2,300
 474:	00c0006f          	j	480 <main+0xb4>
 478:	00478793          	addi	a5,a5,4
 47c:	04c40663          	beq	s0,a2,4c8 <main+0xfc>
 480:	0004a683          	lw	a3,0(s1)
 484:	0007a703          	lw	a4,0(a5)
 488:	00140413          	addi	s0,s0,1
 48c:	00448493          	addi	s1,s1,4
 490:	fee684e3          	beq	a3,a4,478 <main+0xac>
 494:	51c00513          	li	a0,1308
 498:	e9dff0ef          	jal	ra,334 <printStr>
 49c:	00040513          	mv	a0,s0
 4a0:	e55ff0ef          	jal	ra,2f4 <printInt>
 4a4:	00a00513          	li	a0,10
 4a8:	e75ff0ef          	jal	ra,31c <printChar>
 4ac:	4bc12083          	lw	ra,1212(sp)
 4b0:	00040513          	mv	a0,s0
 4b4:	4b812403          	lw	s0,1208(sp)
 4b8:	4b412483          	lw	s1,1204(sp)
 4bc:	4b012903          	lw	s2,1200(sp)
 4c0:	4c010113          	addi	sp,sp,1216
 4c4:	00008067          	ret
 4c8:	00000413          	li	s0,0
 4cc:	fc9ff06f          	j	494 <main+0xc8>
 4d0:	ff010113          	addi	sp,sp,-16
 4d4:	52400513          	li	a0,1316
 4d8:	00112623          	sw	ra,12(sp)
 4dc:	e59ff0ef          	jal	ra,334 <printStr>
 4e0:	00c12083          	lw	ra,12(sp)
 4e4:	fff00513          	li	a0,-1
 4e8:	01010113          	addi	sp,sp,16
 4ec:	00008067          	ret
