
/home/adam/mit_6.175_riscv/programs/smallbenchmarks/../build/smallbenchmarks/bin/median.riscv:     file format elf32-littleriscv


Disassembly of section .text:

00000100 <user_trap_entry>:
 100:	1ac0006f          	j	2ac <trap_entry>
 104:	00000013          	nop
 108:	00000013          	nop
 10c:	00000013          	nop
 110:	00000013          	nop
 114:	00000013          	nop
 118:	00000013          	nop
 11c:	00000013          	nop
 120:	00000013          	nop
 124:	00000013          	nop
 128:	00000013          	nop
 12c:	00000013          	nop
 130:	00000013          	nop
 134:	00000013          	nop
 138:	00000013          	nop
 13c:	00000013          	nop

00000140 <supervisor_trap_entry>:
 140:	0000006f          	j	140 <supervisor_trap_entry>
 144:	00000013          	nop
 148:	00000013          	nop
 14c:	00000013          	nop
 150:	00000013          	nop
 154:	00000013          	nop
 158:	00000013          	nop
 15c:	00000013          	nop
 160:	00000013          	nop
 164:	00000013          	nop
 168:	00000013          	nop
 16c:	00000013          	nop
 170:	00000013          	nop
 174:	00000013          	nop
 178:	00000013          	nop
 17c:	00000013          	nop

00000180 <hypervisor_trap_entry>:
 180:	0000006f          	j	180 <hypervisor_trap_entry>
 184:	00000013          	nop
 188:	00000013          	nop
 18c:	00000013          	nop
 190:	00000013          	nop
 194:	00000013          	nop
 198:	00000013          	nop
 19c:	00000013          	nop
 1a0:	00000013          	nop
 1a4:	00000013          	nop
 1a8:	00000013          	nop
 1ac:	00000013          	nop
 1b0:	00000013          	nop
 1b4:	00000013          	nop
 1b8:	00000013          	nop
 1bc:	00000013          	nop

000001c0 <machine_trap_entry>:
 1c0:	0ec0006f          	j	2ac <trap_entry>
 1c4:	00000013          	nop
 1c8:	00000013          	nop
 1cc:	00000013          	nop
 1d0:	00000013          	nop
 1d4:	00000013          	nop
 1d8:	00000013          	nop
 1dc:	00000013          	nop
 1e0:	00000013          	nop
 1e4:	00000013          	nop
 1e8:	00000013          	nop
 1ec:	00000013          	nop
 1f0:	00000013          	nop
 1f4:	00000013          	nop
 1f8:	00000013          	nop
 1fc:	00000013          	nop

00000200 <_start>:
 200:	00000093          	li	ra,0
 204:	00000113          	li	sp,0
 208:	00000193          	li	gp,0
 20c:	00000213          	li	tp,0
 210:	00000293          	li	t0,0
 214:	00000313          	li	t1,0
 218:	00000393          	li	t2,0
 21c:	00000413          	li	s0,0
 220:	00000493          	li	s1,0
 224:	00000513          	li	a0,0
 228:	00000593          	li	a1,0
 22c:	00000613          	li	a2,0
 230:	00000693          	li	a3,0
 234:	00000713          	li	a4,0
 238:	00000793          	li	a5,0
 23c:	00000813          	li	a6,0
 240:	00000893          	li	a7,0
 244:	00000913          	li	s2,0
 248:	00000993          	li	s3,0
 24c:	00000a13          	li	s4,0
 250:	00000a93          	li	s5,0
 254:	00000b13          	li	s6,0
 258:	00000b93          	li	s7,0
 25c:	00000c13          	li	s8,0
 260:	00000c93          	li	s9,0
 264:	00000d13          	li	s10,0
 268:	00000d93          	li	s11,0
 26c:	00000e13          	li	t3,0
 270:	00000e93          	li	t4,0
 274:	00000f13          	li	t5,0
 278:	00000f93          	li	t6,0
 27c:	00001197          	auipc	gp,0x1
 280:	41018193          	addi	gp,gp,1040 # 168c <_gp>
 284:	00001217          	auipc	tp,0x1
 288:	c4720213          	addi	tp,tp,-953 # ecb <_end+0x3f>
 28c:	fc027213          	andi	tp,tp,-64
 290:	f1402573          	csrr	a0,mhartid
 294:	01151613          	slli	a2,a0,0x11
 298:	00c20233          	add	tp,tp,a2
 29c:	00150113          	addi	sp,a0,1
 2a0:	01111113          	slli	sp,sp,0x11
 2a4:	00410133          	add	sp,sp,tp
 2a8:	2680006f          	j	510 <_init>

000002ac <trap_entry>:
 2ac:	ef010113          	addi	sp,sp,-272
 2b0:	00112423          	sw	ra,8(sp)
 2b4:	00212823          	sw	sp,16(sp)
 2b8:	00312c23          	sw	gp,24(sp)
 2bc:	02412023          	sw	tp,32(sp)
 2c0:	02512423          	sw	t0,40(sp)
 2c4:	02612823          	sw	t1,48(sp)
 2c8:	02712c23          	sw	t2,56(sp)
 2cc:	04812023          	sw	s0,64(sp)
 2d0:	04912423          	sw	s1,72(sp)
 2d4:	04a12823          	sw	a0,80(sp)
 2d8:	04b12c23          	sw	a1,88(sp)
 2dc:	06c12023          	sw	a2,96(sp)
 2e0:	06d12423          	sw	a3,104(sp)
 2e4:	06e12823          	sw	a4,112(sp)
 2e8:	06f12c23          	sw	a5,120(sp)
 2ec:	09012023          	sw	a6,128(sp)
 2f0:	09112423          	sw	a7,136(sp)
 2f4:	09212823          	sw	s2,144(sp)
 2f8:	09312c23          	sw	s3,152(sp)
 2fc:	0b412023          	sw	s4,160(sp)
 300:	0b512423          	sw	s5,168(sp)
 304:	0b612823          	sw	s6,176(sp)
 308:	0b712c23          	sw	s7,184(sp)
 30c:	0d812023          	sw	s8,192(sp)
 310:	0d912423          	sw	s9,200(sp)
 314:	0da12823          	sw	s10,208(sp)
 318:	0db12c23          	sw	s11,216(sp)
 31c:	0fc12023          	sw	t3,224(sp)
 320:	0fd12423          	sw	t4,232(sp)
 324:	0fe12823          	sw	t5,240(sp)
 328:	0ff12c23          	sw	t6,248(sp)
 32c:	34202573          	csrr	a0,mcause
 330:	341025f3          	csrr	a1,mepc
 334:	00010613          	mv	a2,sp
 338:	1d0000ef          	jal	ra,508 <handle_trap>
 33c:	34151073          	csrw	mepc,a0
 340:	00812083          	lw	ra,8(sp)
 344:	01012103          	lw	sp,16(sp)
 348:	01812183          	lw	gp,24(sp)
 34c:	02012203          	lw	tp,32(sp)
 350:	02812283          	lw	t0,40(sp)
 354:	03012303          	lw	t1,48(sp)
 358:	03812383          	lw	t2,56(sp)
 35c:	04012403          	lw	s0,64(sp)
 360:	04812483          	lw	s1,72(sp)
 364:	05012503          	lw	a0,80(sp)
 368:	05812583          	lw	a1,88(sp)
 36c:	06012603          	lw	a2,96(sp)
 370:	06812683          	lw	a3,104(sp)
 374:	07012703          	lw	a4,112(sp)
 378:	07812783          	lw	a5,120(sp)
 37c:	08012803          	lw	a6,128(sp)
 380:	08812883          	lw	a7,136(sp)
 384:	09012903          	lw	s2,144(sp)
 388:	09812983          	lw	s3,152(sp)
 38c:	0a012a03          	lw	s4,160(sp)
 390:	0a812a83          	lw	s5,168(sp)
 394:	0b012b03          	lw	s6,176(sp)
 398:	0b812b83          	lw	s7,184(sp)
 39c:	0c012c03          	lw	s8,192(sp)
 3a0:	0c812c83          	lw	s9,200(sp)
 3a4:	0d012d03          	lw	s10,208(sp)
 3a8:	0d812d83          	lw	s11,216(sp)
 3ac:	0e012e03          	lw	t3,224(sp)
 3b0:	0e812e83          	lw	t4,232(sp)
 3b4:	0f012f03          	lw	t5,240(sp)
 3b8:	0f812f83          	lw	t6,248(sp)
 3bc:	11010113          	addi	sp,sp,272
 3c0:	30200073          	mret

000003c4 <median>:
 3c4:	00251793          	slli	a5,a0,0x2
 3c8:	ffc78793          	addi	a5,a5,-4
 3cc:	00f60733          	add	a4,a2,a5
 3d0:	00062023          	sw	zero,0(a2)
 3d4:	00072023          	sw	zero,0(a4)
 3d8:	00200713          	li	a4,2
 3dc:	02a75e63          	bge	a4,a0,418 <median+0x54>
 3e0:	00b78533          	add	a0,a5,a1
 3e4:	00460613          	addi	a2,a2,4
 3e8:	ffc50513          	addi	a0,a0,-4
 3ec:	0045a783          	lw	a5,4(a1)
 3f0:	0005a703          	lw	a4,0(a1)
 3f4:	0085a683          	lw	a3,8(a1)
 3f8:	02f75e63          	bge	a4,a5,434 <median+0x70>
 3fc:	00d7c663          	blt	a5,a3,408 <median+0x44>
 400:	00068793          	mv	a5,a3
 404:	00e6cc63          	blt	a3,a4,41c <median+0x58>
 408:	00f62023          	sw	a5,0(a2)
 40c:	00458593          	addi	a1,a1,4
 410:	00460613          	addi	a2,a2,4
 414:	fca59ce3          	bne	a1,a0,3ec <median+0x28>
 418:	00008067          	ret
 41c:	00070793          	mv	a5,a4
 420:	00f62023          	sw	a5,0(a2)
 424:	00458593          	addi	a1,a1,4
 428:	00460613          	addi	a2,a2,4
 42c:	fca590e3          	bne	a1,a0,3ec <median+0x28>
 430:	fe9ff06f          	j	418 <median+0x54>
 434:	fed744e3          	blt	a4,a3,41c <median+0x58>
 438:	fcd7d8e3          	bge	a5,a3,408 <median+0x44>
 43c:	00068793          	mv	a5,a3
 440:	00f62023          	sw	a5,0(a2)
 444:	00458593          	addi	a1,a1,4
 448:	00460613          	addi	a2,a2,4
 44c:	faa590e3          	bne	a1,a0,3ec <median+0x28>
 450:	fc9ff06f          	j	418 <median+0x54>

00000454 <printInt>:
 454:	01051793          	slli	a5,a0,0x10
 458:	00020737          	lui	a4,0x20
 45c:	0107d793          	srli	a5,a5,0x10
 460:	00e7e7b3          	or	a5,a5,a4
 464:	78079073          	csrw	mtohost,a5
 468:	000307b7          	lui	a5,0x30
 46c:	01055513          	srli	a0,a0,0x10
 470:	00f56533          	or	a0,a0,a5
 474:	78051073          	csrw	mtohost,a0
 478:	00008067          	ret

0000047c <printChar>:
 47c:	01051513          	slli	a0,a0,0x10
 480:	000107b7          	lui	a5,0x10
 484:	01055513          	srli	a0,a0,0x10
 488:	00f56533          	or	a0,a0,a5
 48c:	78051073          	csrw	mtohost,a0
 490:	00008067          	ret

00000494 <printStr>:
 494:	ffc57793          	andi	a5,a0,-4
 498:	0007a683          	lw	a3,0(a5) # 10000 <_gp+0xe974>
 49c:	00351713          	slli	a4,a0,0x3
 4a0:	01877713          	andi	a4,a4,24
 4a4:	0ff00793          	li	a5,255
 4a8:	00e797b3          	sll	a5,a5,a4
 4ac:	00d7f7b3          	and	a5,a5,a3
 4b0:	00e7d7b3          	srl	a5,a5,a4
 4b4:	04078063          	beqz	a5,4f4 <printStr+0x60>
 4b8:	00010637          	lui	a2,0x10
 4bc:	fff60813          	addi	a6,a2,-1 # ffff <_gp+0xe973>
 4c0:	0ff00593          	li	a1,255
 4c4:	0107f7b3          	and	a5,a5,a6
 4c8:	00c7e7b3          	or	a5,a5,a2
 4cc:	78079073          	csrw	mtohost,a5
 4d0:	00150513          	addi	a0,a0,1
 4d4:	ffc57793          	andi	a5,a0,-4
 4d8:	0007a683          	lw	a3,0(a5)
 4dc:	00351713          	slli	a4,a0,0x3
 4e0:	01877713          	andi	a4,a4,24
 4e4:	00e597b3          	sll	a5,a1,a4
 4e8:	00d7f7b3          	and	a5,a5,a3
 4ec:	00e7d7b3          	srl	a5,a5,a4
 4f0:	fc079ae3          	bnez	a5,4c4 <printStr+0x30>
 4f4:	00008067          	ret

000004f8 <toHostExit>:
 4f8:	01051793          	slli	a5,a0,0x10
 4fc:	0107d793          	srli	a5,a5,0x10
 500:	78079073          	csrw	mtohost,a5
 504:	0000006f          	j	504 <toHostExit+0xc>

00000508 <handle_trap>:
 508:	00458513          	addi	a0,a1,4
 50c:	00008067          	ret

00000510 <_init>:
 510:	ff010113          	addi	sp,sp,-16
 514:	00000593          	li	a1,0
 518:	00000513          	li	a0,0
 51c:	00112623          	sw	ra,12(sp)
 520:	014000ef          	jal	ra,534 <main>
 524:	01051793          	slli	a5,a0,0x10
 528:	0107d793          	srli	a5,a5,0x10
 52c:	78079073          	csrw	mtohost,a5
 530:	0000006f          	j	530 <_init+0x20>

Disassembly of section .text.startup:

00000534 <main>:
 534:	be010113          	addi	sp,sp,-1056
 538:	64000513          	li	a0,1600
 53c:	40112e23          	sw	ra,1052(sp)
 540:	40812c23          	sw	s0,1048(sp)
 544:	40912a23          	sw	s1,1044(sp)
 548:	41212823          	sw	s2,1040(sp)
 54c:	41312623          	sw	s3,1036(sp)
 550:	f45ff0ef          	jal	ra,494 <printStr>
 554:	c00024f3          	rdcycle	s1
 558:	c02029f3          	rdinstret	s3
 55c:	00010613          	mv	a2,sp
 560:	68c00593          	li	a1,1676
 564:	10000513          	li	a0,256
 568:	68c00413          	li	s0,1676
 56c:	e59ff0ef          	jal	ra,3c4 <median>
 570:	c0002973          	rdcycle	s2
 574:	40990933          	sub	s2,s2,s1
 578:	c02024f3          	rdinstret	s1
 57c:	65400513          	li	a0,1620
 580:	f15ff0ef          	jal	ra,494 <printStr>
 584:	00090513          	mv	a0,s2
 588:	ecdff0ef          	jal	ra,454 <printInt>
 58c:	00a00513          	li	a0,10
 590:	eedff0ef          	jal	ra,47c <printChar>
 594:	66000513          	li	a0,1632
 598:	efdff0ef          	jal	ra,494 <printStr>
 59c:	413484b3          	sub	s1,s1,s3
 5a0:	00048513          	mv	a0,s1
 5a4:	eb1ff0ef          	jal	ra,454 <printInt>
 5a8:	00a00513          	li	a0,10
 5ac:	ed1ff0ef          	jal	ra,47c <printChar>
 5b0:	00000493          	li	s1,0
 5b4:	00010713          	mv	a4,sp
 5b8:	40040793          	addi	a5,s0,1024
 5bc:	10000593          	li	a1,256
 5c0:	00c0006f          	j	5cc <main+0x98>
 5c4:	00478793          	addi	a5,a5,4
 5c8:	04b48863          	beq	s1,a1,618 <main+0xe4>
 5cc:	00072603          	lw	a2,0(a4) # 20000 <_gp+0x1e974>
 5d0:	0007a683          	lw	a3,0(a5)
 5d4:	00148493          	addi	s1,s1,1
 5d8:	00470713          	addi	a4,a4,4
 5dc:	fed604e3          	beq	a2,a3,5c4 <main+0x90>
 5e0:	66c00513          	li	a0,1644
 5e4:	eb1ff0ef          	jal	ra,494 <printStr>
 5e8:	00048513          	mv	a0,s1
 5ec:	e69ff0ef          	jal	ra,454 <printInt>
 5f0:	00a00513          	li	a0,10
 5f4:	e89ff0ef          	jal	ra,47c <printChar>
 5f8:	41c12083          	lw	ra,1052(sp)
 5fc:	41812403          	lw	s0,1048(sp)
 600:	41012903          	lw	s2,1040(sp)
 604:	40c12983          	lw	s3,1036(sp)
 608:	00048513          	mv	a0,s1
 60c:	41412483          	lw	s1,1044(sp)
 610:	42010113          	addi	sp,sp,1056
 614:	00008067          	ret
 618:	00000493          	li	s1,0
 61c:	fc5ff06f          	j	5e0 <main+0xac>
 620:	ff010113          	addi	sp,sp,-16
 624:	67400513          	li	a0,1652
 628:	00112623          	sw	ra,12(sp)
 62c:	e69ff0ef          	jal	ra,494 <printStr>
 630:	00c12083          	lw	ra,12(sp)
 634:	fff00513          	li	a0,-1
 638:	01010113          	addi	sp,sp,16
 63c:	00008067          	ret

Disassembly of section .data:

0000068c <input_data>:
 68c:	00000029 000001c6 00000341 0000014f     ).......A...O...
 69c:	00000234 00000001 000000bb 000003dd     4...............
 6ac:	000002ed 0000016d 0000015e 0000023c     ....m...^...<...
 6bc:	00000084 00000040 000003b5 00000099     ....@...........
 6cc:	00000248 000000d8 00000325 0000008c     H.......%.......
 6dc:	0000026d 000000d2 00000006 0000023c     m...........<...
 6ec:	000003a3 00000153 0000037a 00000251     ....S...z...Q...
 6fc:	00000188 00000382 000002b6 000000e4     ................
 70c:	000003c1 0000000c 0000006e 00000373     ........n...s...
 71c:	00000074 000002ee 00000128 00000286     t.......(.......
 72c:	000001aa 000001f4 0000013a 000001b4     ........:.......
 73c:	00000293 000002bd 00000306 0000032c     ............,...
 74c:	0000013f 000003d5 000002a6 00000096     ?...............
 75c:	0000036b 000002b8 00000178 00000234     k.......x...4...
 76c:	000001da 00000110 000003aa 00000102     ................
 77c:	0000021b 00000287 00000239 000001fd     ........9.......
 78c:	000000cb 00000058 00000118 000002bf     ....X...........
 79c:	000002f7 0000029d 0000025e 00000177     ........^...w...
 7ac:	000001ff 00000227 00000291 000003a8     ....'...........
 7bc:	000000c3 00000250 00000051 00000239     ....P...Q...9...
 7cc:	0000010b 000003b8 000000e5 00000320     ............ ...
 7dc:	00000151 00000248 000003b0 00000283     Q...H...........
 7ec:	00000386 00000170 000000f1 000001e9     ....p...........
 7fc:	00000391 00000148 0000033a 00000139     ....H...:...9...
 80c:	000003a5 00000250 000003d9 00000184     ....P...........
 81c:	000000c3 0000021f 000003c0 00000289     ................
 82c:	00000236 000003d3 0000015e 000003e5     6.......^.......
 83c:	00000289 0000032e 00000291 0000004f     ............O...
 84c:	000000b5 000000d0 0000006f 000003e6     ........o.......
 85c:	0000035b 00000275 00000041 0000034f     [...u...A...O...
 86c:	00000120 000002c0 0000015d 000003e5      .......].......
 87c:	0000008d 000000fd 00000389 000002cb     ................
 88c:	00000376 000001ae 00000108 0000019f     v...............
 89c:	00000240 0000021a 000003d3 000002bc     @...............
 8ac:	000002f9 00000004 000000f1 000001ee     ................
 8bc:	000001de 00000064 000001f3 00000360     ....d.......`...
 8cc:	00000193 000002b5 000000de 000001a0     ................
 8dc:	000001bc 00000128 000002d1 0000011d     ....(...........
 8ec:	000002a4 0000026c 0000013d 0000004e     ....l...=...N...
 8fc:	000000e0 0000015f 000003a9 0000021c     ...._...........
 90c:	00000120 00000286 00000077 000000a9      .......w.......
 91c:	00000267 0000020f 0000025e 00000121     g.......^...!...
 92c:	00000185 0000031c 0000015f 00000321     ........_...!...
 93c:	000001c7 000002d0 00000116 000002f6     ................
 94c:	0000016f 000002e9 00000166 0000005c     o.......f...\...
 95c:	00000248 000003dd 0000003e 0000010f     H.......>.......
 96c:	000003d9 00000355 00000193 00000314     ....U...........
 97c:	0000015a 00000213 00000205 000000de     Z...............
 98c:	0000022f 000001cd 0000038c 000000f1     /...............
 99c:	00000307 00000166 000000ff 0000014c     ....f.......L...
 9ac:	0000030a 000002ac 00000256 000002e4     ........V.......
 9bc:	0000008f 000001be 00000021 00000137     ........!...7...
 9cc:	0000007d 000002e7 000003ad 0000022d     }...........-...
 9dc:	000003a5 000001df 0000031f 0000022d     ............-...
 9ec:	00000229 0000039d 000001af 0000031c     )...............
 9fc:	00000288 00000165 000003b8 0000037b     ....e.......{...
 a0c:	0000011f 0000029a 00000013 00000202     ................
 a1c:	00000031 0000022d 00000056 00000366     1...-...V...f...
 a2c:	0000005f 00000355 000001b9 000001b8     _...U...........
 a3c:	0000024b 0000003d 00000266 000002a6     K...=...f.......
 a4c:	0000017e 0000018c 00000118 00000009     ~...............
 a5c:	00000328 00000011 000003cb 000000aa     (...............
 a6c:	00000333 00000123 00000158 0000017c     3...#...X...|...
 a7c:	000001c2 00000218 00000200 000000b9     ................

00000a8c <verify_data>:
 a8c:	00000000 000001c6 000001c6 00000234     ............4...
 a9c:	0000014f 000000bb 000000bb 000002ed     O...............
 aac:	000002ed 0000016d 0000016d 0000015e     ....m...m...^...
 abc:	00000084 00000084 00000099 00000248     ............H...
 acc:	000000d8 00000248 000000d8 0000026d     ....H.......m...
 adc:	000000d2 000000d2 000000d2 0000023c     ............<...
 aec:	0000023c 0000037a 00000251 00000251     <...z...Q...Q...
 afc:	00000251 000002b6 000002b6 000002b6     Q...............
 b0c:	000000e4 0000006e 0000006e 00000074     ....n...n...t...
 b1c:	000002ee 00000128 00000286 000001aa     ....(...........
 b2c:	000001f4 000001aa 000001b4 000001b4     ................
 b3c:	00000293 000002bd 00000306 00000306     ................
 b4c:	0000032c 000002a6 000002a6 000002a6     ,...............
 b5c:	000002b8 000002b8 00000234 000001da     ........4.......
 b6c:	000001da 000001da 00000110 0000021b     ................
 b7c:	0000021b 00000239 00000239 000001fd     ....9...9.......
 b8c:	000000cb 000000cb 00000118 000002bf     ................
 b9c:	000002bf 0000029d 0000025e 000001ff     ........^.......
 bac:	000001ff 00000227 00000291 00000291     ....'...........
 bbc:	00000250 000000c3 00000239 0000010b     P.......9.......
 bcc:	00000239 0000010b 00000320 00000151     9....... ...Q...
 bdc:	00000248 00000248 00000283 00000386     H...H...........
 bec:	00000283 00000170 00000170 000001e9     ....p...p.......
 bfc:	000001e9 0000033a 00000148 0000033a     ....:...H...:...
 c0c:	00000250 000003a5 00000250 00000184     P.......P.......
 c1c:	00000184 0000021f 00000289 00000289     ................
 c2c:	00000289 00000236 000003d3 00000289     ....6...........
 c3c:	0000032e 00000291 00000291 000000b5     ................
 c4c:	000000b5 000000b5 000000d0 0000035b     ............[...
 c5c:	0000035b 00000275 00000275 00000120     [...u...u... ...
 c6c:	000002c0 0000015d 000002c0 0000015d     ....].......]...
 c7c:	000000fd 000000fd 000002cb 00000376     ............v...
 c8c:	000002cb 000001ae 0000019f 0000019f     ................
 c9c:	0000021a 00000240 000002bc 000002f9     ....@...........
 cac:	000002bc 000000f1 000000f1 000001de     ................
 cbc:	000001de 000001de 000001f3 000001f3     ................
 ccc:	000002b5 00000193 000001a0 000001a0     ................
 cdc:	000001a0 000001bc 00000128 000002a4     ........(.......
 cec:	0000026c 0000026c 0000013d 000000e0     l...l...=.......
 cfc:	000000e0 0000015f 0000021c 0000021c     ...._...........
 d0c:	0000021c 00000120 000000a9 000000a9     .... ...........
 d1c:	0000020f 0000025e 0000020f 00000185     ....^...........
 d2c:	00000185 00000185 0000031c 000001c7     ................
 d3c:	000002d0 000001c7 000002d0 0000016f     ............o...
 d4c:	000002e9 0000016f 00000166 00000166     ....o...f...f...
 d5c:	00000248 00000248 0000010f 0000010f     H...H...........
 d6c:	00000355 00000355 00000314 00000193     U...U...........
 d7c:	00000213 00000205 00000205 00000205     ................
 d8c:	000001cd 0000022f 000001cd 00000307     ..../...........
 d9c:	00000166 00000166 0000014c 0000014c     f...f...L...L...
 dac:	000002ac 000002ac 000002ac 00000256     ............V...
 dbc:	000001be 0000008f 00000137 0000007d     ........7...}...
 dcc:	00000137 000002e7 000002e7 000003a5     7...............
 ddc:	0000022d 0000031f 0000022d 0000022d     -.......-...-...
 dec:	0000022d 00000229 0000031c 00000288     -...)...........
 dfc:	00000288 00000288 0000037b 0000037b     ........{...{...
 e0c:	0000029a 0000011f 00000202 00000031     ............1...
 e1c:	00000202 00000056 0000022d 0000005f     ....V...-..._...
 e2c:	00000355 000001b9 000001b9 000001b9     U...............
 e3c:	000001b8 0000024b 00000266 00000266     ....K...f...f...
 e4c:	0000018c 0000017e 00000118 00000118     ....~...........
 e5c:	00000011 00000328 000000aa 00000333     ....(.......3...
 e6c:	00000123 00000158 00000158 0000017c     #...X...X...|...
 e7c:	000001c2 00000200 00000200 00000000     ................
