
/home/adam/mit_6.175_riscv/programs/smallbenchmarks/../build/smallbenchmarks/bin/qsort.riscv:     file format elf32-littleriscv


Disassembly of section .text:

00000100 <user_trap_entry>:
 100:	1ac0006f          	j	2ac <trap_entry>
 104:	00000013          	nop
 108:	00000013          	nop
 10c:	00000013          	nop
 110:	00000013          	nop
 114:	00000013          	nop
 118:	00000013          	nop
 11c:	00000013          	nop
 120:	00000013          	nop
 124:	00000013          	nop
 128:	00000013          	nop
 12c:	00000013          	nop
 130:	00000013          	nop
 134:	00000013          	nop
 138:	00000013          	nop
 13c:	00000013          	nop

00000140 <supervisor_trap_entry>:
 140:	0000006f          	j	140 <supervisor_trap_entry>
 144:	00000013          	nop
 148:	00000013          	nop
 14c:	00000013          	nop
 150:	00000013          	nop
 154:	00000013          	nop
 158:	00000013          	nop
 15c:	00000013          	nop
 160:	00000013          	nop
 164:	00000013          	nop
 168:	00000013          	nop
 16c:	00000013          	nop
 170:	00000013          	nop
 174:	00000013          	nop
 178:	00000013          	nop
 17c:	00000013          	nop

00000180 <hypervisor_trap_entry>:
 180:	0000006f          	j	180 <hypervisor_trap_entry>
 184:	00000013          	nop
 188:	00000013          	nop
 18c:	00000013          	nop
 190:	00000013          	nop
 194:	00000013          	nop
 198:	00000013          	nop
 19c:	00000013          	nop
 1a0:	00000013          	nop
 1a4:	00000013          	nop
 1a8:	00000013          	nop
 1ac:	00000013          	nop
 1b0:	00000013          	nop
 1b4:	00000013          	nop
 1b8:	00000013          	nop
 1bc:	00000013          	nop

000001c0 <machine_trap_entry>:
 1c0:	0ec0006f          	j	2ac <trap_entry>
 1c4:	00000013          	nop
 1c8:	00000013          	nop
 1cc:	00000013          	nop
 1d0:	00000013          	nop
 1d4:	00000013          	nop
 1d8:	00000013          	nop
 1dc:	00000013          	nop
 1e0:	00000013          	nop
 1e4:	00000013          	nop
 1e8:	00000013          	nop
 1ec:	00000013          	nop
 1f0:	00000013          	nop
 1f4:	00000013          	nop
 1f8:	00000013          	nop
 1fc:	00000013          	nop

00000200 <_start>:
 200:	00000093          	li	ra,0
 204:	00000113          	li	sp,0
 208:	00000193          	li	gp,0
 20c:	00000213          	li	tp,0
 210:	00000293          	li	t0,0
 214:	00000313          	li	t1,0
 218:	00000393          	li	t2,0
 21c:	00000413          	li	s0,0
 220:	00000493          	li	s1,0
 224:	00000513          	li	a0,0
 228:	00000593          	li	a1,0
 22c:	00000613          	li	a2,0
 230:	00000693          	li	a3,0
 234:	00000713          	li	a4,0
 238:	00000793          	li	a5,0
 23c:	00000813          	li	a6,0
 240:	00000893          	li	a7,0
 244:	00000913          	li	s2,0
 248:	00000993          	li	s3,0
 24c:	00000a13          	li	s4,0
 250:	00000a93          	li	s5,0
 254:	00000b13          	li	s6,0
 258:	00000b93          	li	s7,0
 25c:	00000c13          	li	s8,0
 260:	00000c93          	li	s9,0
 264:	00000d13          	li	s10,0
 268:	00000d93          	li	s11,0
 26c:	00000e13          	li	t3,0
 270:	00000e93          	li	t4,0
 274:	00000f13          	li	t5,0
 278:	00000f93          	li	t6,0
 27c:	00001197          	auipc	gp,0x1
 280:	79818193          	addi	gp,gp,1944 # 1a14 <_gp>
 284:	00001217          	auipc	tp,0x1
 288:	fcf20213          	addi	tp,tp,-49 # 1253 <_end+0x3f>
 28c:	fc027213          	andi	tp,tp,-64
 290:	f1402573          	csrr	a0,mhartid
 294:	01151613          	slli	a2,a0,0x11
 298:	00c20233          	add	tp,tp,a2
 29c:	00150113          	addi	sp,a0,1
 2a0:	01111113          	slli	sp,sp,0x11
 2a4:	00410133          	add	sp,sp,tp
 2a8:	5e00006f          	j	888 <_init>

000002ac <trap_entry>:
 2ac:	ef010113          	addi	sp,sp,-272
 2b0:	00112423          	sw	ra,8(sp)
 2b4:	00212823          	sw	sp,16(sp)
 2b8:	00312c23          	sw	gp,24(sp)
 2bc:	02412023          	sw	tp,32(sp)
 2c0:	02512423          	sw	t0,40(sp)
 2c4:	02612823          	sw	t1,48(sp)
 2c8:	02712c23          	sw	t2,56(sp)
 2cc:	04812023          	sw	s0,64(sp)
 2d0:	04912423          	sw	s1,72(sp)
 2d4:	04a12823          	sw	a0,80(sp)
 2d8:	04b12c23          	sw	a1,88(sp)
 2dc:	06c12023          	sw	a2,96(sp)
 2e0:	06d12423          	sw	a3,104(sp)
 2e4:	06e12823          	sw	a4,112(sp)
 2e8:	06f12c23          	sw	a5,120(sp)
 2ec:	09012023          	sw	a6,128(sp)
 2f0:	09112423          	sw	a7,136(sp)
 2f4:	09212823          	sw	s2,144(sp)
 2f8:	09312c23          	sw	s3,152(sp)
 2fc:	0b412023          	sw	s4,160(sp)
 300:	0b512423          	sw	s5,168(sp)
 304:	0b612823          	sw	s6,176(sp)
 308:	0b712c23          	sw	s7,184(sp)
 30c:	0d812023          	sw	s8,192(sp)
 310:	0d912423          	sw	s9,200(sp)
 314:	0da12823          	sw	s10,208(sp)
 318:	0db12c23          	sw	s11,216(sp)
 31c:	0fc12023          	sw	t3,224(sp)
 320:	0fd12423          	sw	t4,232(sp)
 324:	0fe12823          	sw	t5,240(sp)
 328:	0ff12c23          	sw	t6,248(sp)
 32c:	34202573          	csrr	a0,mcause
 330:	341025f3          	csrr	a1,mepc
 334:	00010613          	mv	a2,sp
 338:	548000ef          	jal	ra,880 <handle_trap>
 33c:	34151073          	csrw	mepc,a0
 340:	00812083          	lw	ra,8(sp)
 344:	01012103          	lw	sp,16(sp)
 348:	01812183          	lw	gp,24(sp)
 34c:	02012203          	lw	tp,32(sp)
 350:	02812283          	lw	t0,40(sp)
 354:	03012303          	lw	t1,48(sp)
 358:	03812383          	lw	t2,56(sp)
 35c:	04012403          	lw	s0,64(sp)
 360:	04812483          	lw	s1,72(sp)
 364:	05012503          	lw	a0,80(sp)
 368:	05812583          	lw	a1,88(sp)
 36c:	06012603          	lw	a2,96(sp)
 370:	06812683          	lw	a3,104(sp)
 374:	07012703          	lw	a4,112(sp)
 378:	07812783          	lw	a5,120(sp)
 37c:	08012803          	lw	a6,128(sp)
 380:	08812883          	lw	a7,136(sp)
 384:	09012903          	lw	s2,144(sp)
 388:	09812983          	lw	s3,152(sp)
 38c:	0a012a03          	lw	s4,160(sp)
 390:	0a812a83          	lw	s5,168(sp)
 394:	0b012b03          	lw	s6,176(sp)
 398:	0b812b83          	lw	s7,184(sp)
 39c:	0c012c03          	lw	s8,192(sp)
 3a0:	0c812c83          	lw	s9,200(sp)
 3a4:	0d012d03          	lw	s10,208(sp)
 3a8:	0d812d83          	lw	s11,216(sp)
 3ac:	0e012e03          	lw	t3,224(sp)
 3b0:	0e812e83          	lw	t4,232(sp)
 3b4:	0f012f03          	lw	t5,240(sp)
 3b8:	0f812f83          	lw	t6,248(sp)
 3bc:	11010113          	addi	sp,sp,272
 3c0:	30200073          	mret

000003c4 <partition>:
 3c4:	00261893          	slli	a7,a2,0x2
 3c8:	011508b3          	add	a7,a0,a7
 3cc:	0008ae03          	lw	t3,0(a7)
 3d0:	00050313          	mv	t1,a0
 3d4:	fff58813          	addi	a6,a1,-1
 3d8:	04c5dc63          	bge	a1,a2,430 <partition+0x6c>
 3dc:	00259593          	slli	a1,a1,0x2
 3e0:	00b507b3          	add	a5,a0,a1
 3e4:	0007a683          	lw	a3,0(a5)
 3e8:	00de4e63          	blt	t3,a3,404 <partition+0x40>
 3ec:	00180813          	addi	a6,a6,1
 3f0:	00281713          	slli	a4,a6,0x2
 3f4:	00e30733          	add	a4,t1,a4
 3f8:	00072603          	lw	a2,0(a4)
 3fc:	00d72023          	sw	a3,0(a4)
 400:	00c7a023          	sw	a2,0(a5)
 404:	00478793          	addi	a5,a5,4
 408:	fcf89ee3          	bne	a7,a5,3e4 <partition+0x20>
 40c:	00180813          	addi	a6,a6,1
 410:	00080513          	mv	a0,a6
 414:	00281813          	slli	a6,a6,0x2
 418:	0008ae03          	lw	t3,0(a7)
 41c:	01030333          	add	t1,t1,a6
 420:	00032783          	lw	a5,0(t1)
 424:	01c32023          	sw	t3,0(t1)
 428:	00f8a023          	sw	a5,0(a7)
 42c:	00008067          	ret
 430:	00058813          	mv	a6,a1
 434:	00281813          	slli	a6,a6,0x2
 438:	01030333          	add	t1,t1,a6
 43c:	00032783          	lw	a5,0(t1)
 440:	01c32023          	sw	t3,0(t1)
 444:	00058513          	mv	a0,a1
 448:	00f8a023          	sw	a5,0(a7)
 44c:	00008067          	ret

00000450 <quick_sort>:
 450:	1ec5da63          	bge	a1,a2,644 <quick_sort+0x1f4>
 454:	fa010113          	addi	sp,sp,-96
 458:	04812c23          	sw	s0,88(sp)
 45c:	05612023          	sw	s6,64(sp)
 460:	03812c23          	sw	s8,56(sp)
 464:	04112e23          	sw	ra,92(sp)
 468:	04912a23          	sw	s1,84(sp)
 46c:	05212823          	sw	s2,80(sp)
 470:	05312623          	sw	s3,76(sp)
 474:	05412423          	sw	s4,72(sp)
 478:	05512223          	sw	s5,68(sp)
 47c:	03712e23          	sw	s7,60(sp)
 480:	03912a23          	sw	s9,52(sp)
 484:	03a12823          	sw	s10,48(sp)
 488:	03b12623          	sw	s11,44(sp)
 48c:	00058c13          	mv	s8,a1
 490:	00060b13          	mv	s6,a2
 494:	00050413          	mv	s0,a0
 498:	000b0613          	mv	a2,s6
 49c:	000c0593          	mv	a1,s8
 4a0:	00040513          	mv	a0,s0
 4a4:	f21ff0ef          	jal	ra,3c4 <partition>
 4a8:	00a12223          	sw	a0,4(sp)
 4ac:	fff50c93          	addi	s9,a0,-1
 4b0:	159c5663          	bge	s8,s9,5fc <quick_sort+0x1ac>
 4b4:	000c8613          	mv	a2,s9
 4b8:	000c0593          	mv	a1,s8
 4bc:	00040513          	mv	a0,s0
 4c0:	f05ff0ef          	jal	ra,3c4 <partition>
 4c4:	00a12423          	sw	a0,8(sp)
 4c8:	fff50d13          	addi	s10,a0,-1
 4cc:	13ac5263          	bge	s8,s10,5f0 <quick_sort+0x1a0>
 4d0:	000d0613          	mv	a2,s10
 4d4:	000c0593          	mv	a1,s8
 4d8:	00040513          	mv	a0,s0
 4dc:	ee9ff0ef          	jal	ra,3c4 <partition>
 4e0:	00a12623          	sw	a0,12(sp)
 4e4:	fff50d93          	addi	s11,a0,-1
 4e8:	0fbc5e63          	bge	s8,s11,5e4 <quick_sort+0x194>
 4ec:	000d8613          	mv	a2,s11
 4f0:	000c0593          	mv	a1,s8
 4f4:	00040513          	mv	a0,s0
 4f8:	ecdff0ef          	jal	ra,3c4 <partition>
 4fc:	00a12823          	sw	a0,16(sp)
 500:	fff50993          	addi	s3,a0,-1
 504:	0d3c5a63          	bge	s8,s3,5d8 <quick_sort+0x188>
 508:	00098613          	mv	a2,s3
 50c:	000c0593          	mv	a1,s8
 510:	00040513          	mv	a0,s0
 514:	eb1ff0ef          	jal	ra,3c4 <partition>
 518:	fff50913          	addi	s2,a0,-1
 51c:	00050493          	mv	s1,a0
 520:	0b2c5863          	bge	s8,s2,5d0 <quick_sort+0x180>
 524:	00090613          	mv	a2,s2
 528:	000c0593          	mv	a1,s8
 52c:	00040513          	mv	a0,s0
 530:	e95ff0ef          	jal	ra,3c4 <partition>
 534:	fff50b93          	addi	s7,a0,-1
 538:	00050a13          	mv	s4,a0
 53c:	097c5663          	bge	s8,s7,5c8 <quick_sort+0x178>
 540:	000b8613          	mv	a2,s7
 544:	000c0593          	mv	a1,s8
 548:	00040513          	mv	a0,s0
 54c:	e79ff0ef          	jal	ra,3c4 <partition>
 550:	00a12a23          	sw	a0,20(sp)
 554:	fff50a93          	addi	s5,a0,-1
 558:	075c5263          	bge	s8,s5,5bc <quick_sort+0x16c>
 55c:	000a8613          	mv	a2,s5
 560:	000c0593          	mv	a1,s8
 564:	00040513          	mv	a0,s0
 568:	e5dff0ef          	jal	ra,3c4 <partition>
 56c:	fff50693          	addi	a3,a0,-1
 570:	00050713          	mv	a4,a0
 574:	04dc5063          	bge	s8,a3,5b4 <quick_sort+0x164>
 578:	00068613          	mv	a2,a3
 57c:	000c0593          	mv	a1,s8
 580:	00040513          	mv	a0,s0
 584:	00e12e23          	sw	a4,28(sp)
 588:	00d12c23          	sw	a3,24(sp)
 58c:	e39ff0ef          	jal	ra,3c4 <partition>
 590:	00050813          	mv	a6,a0
 594:	000c0593          	mv	a1,s8
 598:	fff50613          	addi	a2,a0,-1
 59c:	00040513          	mv	a0,s0
 5a0:	00180c13          	addi	s8,a6,1
 5a4:	eadff0ef          	jal	ra,450 <quick_sort>
 5a8:	01812683          	lw	a3,24(sp)
 5ac:	01c12703          	lw	a4,28(sp)
 5b0:	fcdc44e3          	blt	s8,a3,578 <quick_sort+0x128>
 5b4:	00170c13          	addi	s8,a4,1
 5b8:	fb5c42e3          	blt	s8,s5,55c <quick_sort+0x10c>
 5bc:	01412783          	lw	a5,20(sp)
 5c0:	00178c13          	addi	s8,a5,1
 5c4:	f77c4ee3          	blt	s8,s7,540 <quick_sort+0xf0>
 5c8:	001a0c13          	addi	s8,s4,1
 5cc:	f52c4ce3          	blt	s8,s2,524 <quick_sort+0xd4>
 5d0:	00148c13          	addi	s8,s1,1
 5d4:	f33c4ae3          	blt	s8,s3,508 <quick_sort+0xb8>
 5d8:	01012783          	lw	a5,16(sp)
 5dc:	00178c13          	addi	s8,a5,1
 5e0:	f1bc46e3          	blt	s8,s11,4ec <quick_sort+0x9c>
 5e4:	00c12783          	lw	a5,12(sp)
 5e8:	00178c13          	addi	s8,a5,1
 5ec:	efac42e3          	blt	s8,s10,4d0 <quick_sort+0x80>
 5f0:	00812783          	lw	a5,8(sp)
 5f4:	00178c13          	addi	s8,a5,1
 5f8:	eb9c4ee3          	blt	s8,s9,4b4 <quick_sort+0x64>
 5fc:	00412783          	lw	a5,4(sp)
 600:	00178c13          	addi	s8,a5,1
 604:	e96c4ae3          	blt	s8,s6,498 <quick_sort+0x48>
 608:	05c12083          	lw	ra,92(sp)
 60c:	05812403          	lw	s0,88(sp)
 610:	05412483          	lw	s1,84(sp)
 614:	05012903          	lw	s2,80(sp)
 618:	04c12983          	lw	s3,76(sp)
 61c:	04812a03          	lw	s4,72(sp)
 620:	04412a83          	lw	s5,68(sp)
 624:	04012b03          	lw	s6,64(sp)
 628:	03c12b83          	lw	s7,60(sp)
 62c:	03812c03          	lw	s8,56(sp)
 630:	03412c83          	lw	s9,52(sp)
 634:	03012d03          	lw	s10,48(sp)
 638:	02c12d83          	lw	s11,44(sp)
 63c:	06010113          	addi	sp,sp,96
 640:	00008067          	ret
 644:	00008067          	ret

00000648 <sort>:
 648:	f3010113          	addi	sp,sp,-208
 64c:	00251513          	slli	a0,a0,0x2
 650:	00810f13          	addi	t5,sp,8
 654:	40000fb7          	lui	t6,0x40000
 658:	00058e93          	mv	t4,a1
 65c:	00a588b3          	add	a7,a1,a0
 660:	000f0313          	mv	t1,t5
 664:	00458593          	addi	a1,a1,4
 668:	02400e13          	li	t3,36
 66c:	ffff8f93          	addi	t6,t6,-1 # 3fffffff <_gp+0x3fffe5eb>
 670:	40b887b3          	sub	a5,a7,a1
 674:	04fe4863          	blt	t3,a5,6c4 <sort+0x7c>
 678:	ffc58613          	addi	a2,a1,-4
 67c:	0315f863          	bgeu	a1,a7,6ac <sort+0x64>
 680:	0005a683          	lw	a3,0(a1)
 684:	00058793          	mv	a5,a1
 688:	0100006f          	j	698 <sort+0x50>
 68c:	00e7a023          	sw	a4,0(a5)
 690:	ffc78793          	addi	a5,a5,-4
 694:	00f60663          	beq	a2,a5,6a0 <sort+0x58>
 698:	ffc7a703          	lw	a4,-4(a5)
 69c:	fee6c8e3          	blt	a3,a4,68c <sort+0x44>
 6a0:	00d7a023          	sw	a3,0(a5)
 6a4:	00458593          	addi	a1,a1,4
 6a8:	fd15ece3          	bltu	a1,a7,680 <sort+0x38>
 6ac:	11e30c63          	beq	t1,t5,7c4 <sort+0x17c>
 6b0:	00032883          	lw	a7,0(t1)
 6b4:	ffc32583          	lw	a1,-4(t1)
 6b8:	ff830313          	addi	t1,t1,-8
 6bc:	40b887b3          	sub	a5,a7,a1
 6c0:	fafe5ce3          	bge	t3,a5,678 <sort+0x30>
 6c4:	41d58733          	sub	a4,a1,t4
 6c8:	41d887b3          	sub	a5,a7,t4
 6cc:	4027d793          	srai	a5,a5,0x2
 6d0:	40275713          	srai	a4,a4,0x2
 6d4:	00f70733          	add	a4,a4,a5
 6d8:	01f75793          	srli	a5,a4,0x1f
 6dc:	00e787b3          	add	a5,a5,a4
 6e0:	4017d793          	srai	a5,a5,0x1
 6e4:	01f787b3          	add	a5,a5,t6
 6e8:	00279793          	slli	a5,a5,0x2
 6ec:	0005a703          	lw	a4,0(a1)
 6f0:	00fe87b3          	add	a5,t4,a5
 6f4:	0007a683          	lw	a3,0(a5)
 6f8:	00e7a023          	sw	a4,0(a5)
 6fc:	ffc5a703          	lw	a4,-4(a1)
 700:	00d5a023          	sw	a3,0(a1)
 704:	ffc8a783          	lw	a5,-4(a7)
 708:	00e7da63          	bge	a5,a4,71c <sort+0xd4>
 70c:	fef5ae23          	sw	a5,-4(a1)
 710:	fee8ae23          	sw	a4,-4(a7)
 714:	0005a683          	lw	a3,0(a1)
 718:	00070793          	mv	a5,a4
 71c:	00d7d863          	bge	a5,a3,72c <sort+0xe4>
 720:	00f5a023          	sw	a5,0(a1)
 724:	fed8ae23          	sw	a3,-4(a7)
 728:	0005a683          	lw	a3,0(a1)
 72c:	ffc5a783          	lw	a5,-4(a1)
 730:	00f6d863          	bge	a3,a5,740 <sort+0xf8>
 734:	fed5ae23          	sw	a3,-4(a1)
 738:	00f5a023          	sw	a5,0(a1)
 73c:	00078693          	mv	a3,a5
 740:	00458513          	addi	a0,a1,4
 744:	00088793          	mv	a5,a7
 748:	00052803          	lw	a6,0(a0)
 74c:	00450513          	addi	a0,a0,4
 750:	fed84ce3          	blt	a6,a3,748 <sort+0x100>
 754:	ff87a703          	lw	a4,-8(a5)
 758:	00078613          	mv	a2,a5
 75c:	ffc78793          	addi	a5,a5,-4
 760:	fee6cae3          	blt	a3,a4,754 <sort+0x10c>
 764:	00a7e863          	bltu	a5,a0,774 <sort+0x12c>
 768:	fee52e23          	sw	a4,-4(a0)
 76c:	ff07ae23          	sw	a6,-4(a5)
 770:	fd9ff06f          	j	748 <sort+0x100>
 774:	40a88833          	sub	a6,a7,a0
 778:	00e5a023          	sw	a4,0(a1)
 77c:	40285713          	srai	a4,a6,0x2
 780:	40b78833          	sub	a6,a5,a1
 784:	fed7ae23          	sw	a3,-4(a5)
 788:	00170793          	addi	a5,a4,1
 78c:	40285713          	srai	a4,a6,0x2
 790:	00830693          	addi	a3,t1,8
 794:	ff860613          	addi	a2,a2,-8
 798:	00e7cc63          	blt	a5,a4,7b0 <sort+0x168>
 79c:	01132423          	sw	a7,8(t1)
 7a0:	00a32223          	sw	a0,4(t1)
 7a4:	00060893          	mv	a7,a2
 7a8:	00068313          	mv	t1,a3
 7ac:	ec5ff06f          	j	670 <sort+0x28>
 7b0:	00b32223          	sw	a1,4(t1)
 7b4:	00c32423          	sw	a2,8(t1)
 7b8:	00050593          	mv	a1,a0
 7bc:	00068313          	mv	t1,a3
 7c0:	eb1ff06f          	j	670 <sort+0x28>
 7c4:	0d010113          	addi	sp,sp,208
 7c8:	00008067          	ret

000007cc <printInt>:
 7cc:	01051793          	slli	a5,a0,0x10
 7d0:	00020737          	lui	a4,0x20
 7d4:	0107d793          	srli	a5,a5,0x10
 7d8:	00e7e7b3          	or	a5,a5,a4
 7dc:	78079073          	csrw	mtohost,a5
 7e0:	000307b7          	lui	a5,0x30
 7e4:	01055513          	srli	a0,a0,0x10
 7e8:	00f56533          	or	a0,a0,a5
 7ec:	78051073          	csrw	mtohost,a0
 7f0:	00008067          	ret

000007f4 <printChar>:
 7f4:	01051513          	slli	a0,a0,0x10
 7f8:	000107b7          	lui	a5,0x10
 7fc:	01055513          	srli	a0,a0,0x10
 800:	00f56533          	or	a0,a0,a5
 804:	78051073          	csrw	mtohost,a0
 808:	00008067          	ret

0000080c <printStr>:
 80c:	ffc57793          	andi	a5,a0,-4
 810:	0007a683          	lw	a3,0(a5) # 10000 <_gp+0xe5ec>
 814:	00351713          	slli	a4,a0,0x3
 818:	01877713          	andi	a4,a4,24
 81c:	0ff00793          	li	a5,255
 820:	00e797b3          	sll	a5,a5,a4
 824:	00d7f7b3          	and	a5,a5,a3
 828:	00e7d7b3          	srl	a5,a5,a4
 82c:	04078063          	beqz	a5,86c <printStr+0x60>
 830:	00010637          	lui	a2,0x10
 834:	fff60813          	addi	a6,a2,-1 # ffff <_gp+0xe5eb>
 838:	0ff00593          	li	a1,255
 83c:	0107f7b3          	and	a5,a5,a6
 840:	00c7e7b3          	or	a5,a5,a2
 844:	78079073          	csrw	mtohost,a5
 848:	00150513          	addi	a0,a0,1
 84c:	ffc57793          	andi	a5,a0,-4
 850:	0007a683          	lw	a3,0(a5)
 854:	00351713          	slli	a4,a0,0x3
 858:	01877713          	andi	a4,a4,24
 85c:	00e597b3          	sll	a5,a1,a4
 860:	00d7f7b3          	and	a5,a5,a3
 864:	00e7d7b3          	srl	a5,a5,a4
 868:	fc079ae3          	bnez	a5,83c <printStr+0x30>
 86c:	00008067          	ret

00000870 <toHostExit>:
 870:	01051793          	slli	a5,a0,0x10
 874:	0107d793          	srli	a5,a5,0x10
 878:	78079073          	csrw	mtohost,a5
 87c:	0000006f          	j	87c <toHostExit+0xc>

00000880 <handle_trap>:
 880:	00458513          	addi	a0,a1,4
 884:	00008067          	ret

00000888 <_init>:
 888:	ff010113          	addi	sp,sp,-16
 88c:	00000593          	li	a1,0
 890:	00000513          	li	a0,0
 894:	00112623          	sw	ra,12(sp)
 898:	014000ef          	jal	ra,8ac <main>
 89c:	01051793          	slli	a5,a0,0x10
 8a0:	0107d793          	srli	a5,a5,0x10
 8a4:	78079073          	csrw	mtohost,a5
 8a8:	0000006f          	j	8a8 <_init+0x20>

Disassembly of section .text.startup:

000008ac <main>:
 8ac:	00001537          	lui	a0,0x1
 8b0:	fe010113          	addi	sp,sp,-32
 8b4:	9c850513          	addi	a0,a0,-1592 # 9c8 <main+0x11c>
 8b8:	00112e23          	sw	ra,28(sp)
 8bc:	00812c23          	sw	s0,24(sp)
 8c0:	00912a23          	sw	s1,20(sp)
 8c4:	01212823          	sw	s2,16(sp)
 8c8:	01312623          	sw	s3,12(sp)
 8cc:	f41ff0ef          	jal	ra,80c <printStr>
 8d0:	c00024f3          	rdcycle	s1
 8d4:	c02029f3          	rdinstret	s3
 8d8:	00001437          	lui	s0,0x1
 8dc:	a1440593          	addi	a1,s0,-1516 # a14 <input_data>
 8e0:	10000513          	li	a0,256
 8e4:	d65ff0ef          	jal	ra,648 <sort>
 8e8:	c0002973          	rdcycle	s2
 8ec:	40990933          	sub	s2,s2,s1
 8f0:	c02024f3          	rdinstret	s1
 8f4:	00001537          	lui	a0,0x1
 8f8:	9dc50513          	addi	a0,a0,-1572 # 9dc <main+0x130>
 8fc:	f11ff0ef          	jal	ra,80c <printStr>
 900:	00090513          	mv	a0,s2
 904:	ec9ff0ef          	jal	ra,7cc <printInt>
 908:	00a00513          	li	a0,10
 90c:	ee9ff0ef          	jal	ra,7f4 <printChar>
 910:	00001537          	lui	a0,0x1
 914:	9e850513          	addi	a0,a0,-1560 # 9e8 <main+0x13c>
 918:	ef5ff0ef          	jal	ra,80c <printStr>
 91c:	413484b3          	sub	s1,s1,s3
 920:	00048513          	mv	a0,s1
 924:	ea9ff0ef          	jal	ra,7cc <printInt>
 928:	00a00513          	li	a0,10
 92c:	ec9ff0ef          	jal	ra,7f4 <printChar>
 930:	a1440793          	addi	a5,s0,-1516
 934:	40078713          	addi	a4,a5,1024
 938:	00000413          	li	s0,0
 93c:	10000593          	li	a1,256
 940:	00c0006f          	j	94c <main+0xa0>
 944:	00470713          	addi	a4,a4,4 # 20004 <_gp+0x1e5f0>
 948:	04b40a63          	beq	s0,a1,99c <main+0xf0>
 94c:	0007a603          	lw	a2,0(a5)
 950:	00072683          	lw	a3,0(a4)
 954:	00140413          	addi	s0,s0,1
 958:	00478793          	addi	a5,a5,4
 95c:	fed604e3          	beq	a2,a3,944 <main+0x98>
 960:	00001537          	lui	a0,0x1
 964:	9f450513          	addi	a0,a0,-1548 # 9f4 <main+0x148>
 968:	ea5ff0ef          	jal	ra,80c <printStr>
 96c:	00040513          	mv	a0,s0
 970:	e5dff0ef          	jal	ra,7cc <printInt>
 974:	00a00513          	li	a0,10
 978:	e7dff0ef          	jal	ra,7f4 <printChar>
 97c:	01c12083          	lw	ra,28(sp)
 980:	00040513          	mv	a0,s0
 984:	01812403          	lw	s0,24(sp)
 988:	01412483          	lw	s1,20(sp)
 98c:	01012903          	lw	s2,16(sp)
 990:	00c12983          	lw	s3,12(sp)
 994:	02010113          	addi	sp,sp,32
 998:	00008067          	ret
 99c:	00000413          	li	s0,0
 9a0:	fc1ff06f          	j	960 <main+0xb4>
 9a4:	00001537          	lui	a0,0x1
 9a8:	ff010113          	addi	sp,sp,-16
 9ac:	9fc50513          	addi	a0,a0,-1540 # 9fc <main+0x150>
 9b0:	00112623          	sw	ra,12(sp)
 9b4:	e59ff0ef          	jal	ra,80c <printStr>
 9b8:	00c12083          	lw	ra,12(sp)
 9bc:	fff00513          	li	a0,-1
 9c0:	01010113          	addi	sp,sp,16
 9c4:	00008067          	ret
