
/home/adam/mit_6.175_riscv/programs/smallbenchmarks/../build/smallbenchmarks/bin/vvadd.riscv:     file format elf32-littleriscv


Disassembly of section .text:

00000100 <user_trap_entry>:
 100:	1ac0006f          	j	2ac <trap_entry>
 104:	00000013          	nop
 108:	00000013          	nop
 10c:	00000013          	nop
 110:	00000013          	nop
 114:	00000013          	nop
 118:	00000013          	nop
 11c:	00000013          	nop
 120:	00000013          	nop
 124:	00000013          	nop
 128:	00000013          	nop
 12c:	00000013          	nop
 130:	00000013          	nop
 134:	00000013          	nop
 138:	00000013          	nop
 13c:	00000013          	nop

00000140 <supervisor_trap_entry>:
 140:	0000006f          	j	140 <supervisor_trap_entry>
 144:	00000013          	nop
 148:	00000013          	nop
 14c:	00000013          	nop
 150:	00000013          	nop
 154:	00000013          	nop
 158:	00000013          	nop
 15c:	00000013          	nop
 160:	00000013          	nop
 164:	00000013          	nop
 168:	00000013          	nop
 16c:	00000013          	nop
 170:	00000013          	nop
 174:	00000013          	nop
 178:	00000013          	nop
 17c:	00000013          	nop

00000180 <hypervisor_trap_entry>:
 180:	0000006f          	j	180 <hypervisor_trap_entry>
 184:	00000013          	nop
 188:	00000013          	nop
 18c:	00000013          	nop
 190:	00000013          	nop
 194:	00000013          	nop
 198:	00000013          	nop
 19c:	00000013          	nop
 1a0:	00000013          	nop
 1a4:	00000013          	nop
 1a8:	00000013          	nop
 1ac:	00000013          	nop
 1b0:	00000013          	nop
 1b4:	00000013          	nop
 1b8:	00000013          	nop
 1bc:	00000013          	nop

000001c0 <machine_trap_entry>:
 1c0:	0ec0006f          	j	2ac <trap_entry>
 1c4:	00000013          	nop
 1c8:	00000013          	nop
 1cc:	00000013          	nop
 1d0:	00000013          	nop
 1d4:	00000013          	nop
 1d8:	00000013          	nop
 1dc:	00000013          	nop
 1e0:	00000013          	nop
 1e4:	00000013          	nop
 1e8:	00000013          	nop
 1ec:	00000013          	nop
 1f0:	00000013          	nop
 1f4:	00000013          	nop
 1f8:	00000013          	nop
 1fc:	00000013          	nop

00000200 <_start>:
 200:	00000093          	li	ra,0
 204:	00000113          	li	sp,0
 208:	00000193          	li	gp,0
 20c:	00000213          	li	tp,0
 210:	00000293          	li	t0,0
 214:	00000313          	li	t1,0
 218:	00000393          	li	t2,0
 21c:	00000413          	li	s0,0
 220:	00000493          	li	s1,0
 224:	00000513          	li	a0,0
 228:	00000593          	li	a1,0
 22c:	00000613          	li	a2,0
 230:	00000693          	li	a3,0
 234:	00000713          	li	a4,0
 238:	00000793          	li	a5,0
 23c:	00000813          	li	a6,0
 240:	00000893          	li	a7,0
 244:	00000913          	li	s2,0
 248:	00000993          	li	s3,0
 24c:	00000a13          	li	s4,0
 250:	00000a93          	li	s5,0
 254:	00000b13          	li	s6,0
 258:	00000b93          	li	s7,0
 25c:	00000c13          	li	s8,0
 260:	00000c93          	li	s9,0
 264:	00000d13          	li	s10,0
 268:	00000d93          	li	s11,0
 26c:	00000e13          	li	t3,0
 270:	00000e93          	li	t4,0
 274:	00000f13          	li	t5,0
 278:	00000f93          	li	t6,0
 27c:	00001197          	auipc	gp,0x1
 280:	1d018193          	addi	gp,gp,464 # 144c <_gp>
 284:	00001217          	auipc	tp,0x1
 288:	a0720213          	addi	tp,tp,-1529 # c8b <_end+0x3f>
 28c:	fc027213          	andi	tp,tp,-64
 290:	f1402573          	csrr	a0,mhartid
 294:	01151613          	slli	a2,a0,0x11
 298:	00c20233          	add	tp,tp,a2
 29c:	00150113          	addi	sp,a0,1
 2a0:	01111113          	slli	sp,sp,0x11
 2a4:	00410133          	add	sp,sp,tp
 2a8:	2080006f          	j	4b0 <_init>

000002ac <trap_entry>:
 2ac:	ef010113          	addi	sp,sp,-272
 2b0:	00112423          	sw	ra,8(sp)
 2b4:	00212823          	sw	sp,16(sp)
 2b8:	00312c23          	sw	gp,24(sp)
 2bc:	02412023          	sw	tp,32(sp)
 2c0:	02512423          	sw	t0,40(sp)
 2c4:	02612823          	sw	t1,48(sp)
 2c8:	02712c23          	sw	t2,56(sp)
 2cc:	04812023          	sw	s0,64(sp)
 2d0:	04912423          	sw	s1,72(sp)
 2d4:	04a12823          	sw	a0,80(sp)
 2d8:	04b12c23          	sw	a1,88(sp)
 2dc:	06c12023          	sw	a2,96(sp)
 2e0:	06d12423          	sw	a3,104(sp)
 2e4:	06e12823          	sw	a4,112(sp)
 2e8:	06f12c23          	sw	a5,120(sp)
 2ec:	09012023          	sw	a6,128(sp)
 2f0:	09112423          	sw	a7,136(sp)
 2f4:	09212823          	sw	s2,144(sp)
 2f8:	09312c23          	sw	s3,152(sp)
 2fc:	0b412023          	sw	s4,160(sp)
 300:	0b512423          	sw	s5,168(sp)
 304:	0b612823          	sw	s6,176(sp)
 308:	0b712c23          	sw	s7,184(sp)
 30c:	0d812023          	sw	s8,192(sp)
 310:	0d912423          	sw	s9,200(sp)
 314:	0da12823          	sw	s10,208(sp)
 318:	0db12c23          	sw	s11,216(sp)
 31c:	0fc12023          	sw	t3,224(sp)
 320:	0fd12423          	sw	t4,232(sp)
 324:	0fe12823          	sw	t5,240(sp)
 328:	0ff12c23          	sw	t6,248(sp)
 32c:	34202573          	csrr	a0,mcause
 330:	341025f3          	csrr	a1,mepc
 334:	00010613          	mv	a2,sp
 338:	170000ef          	jal	ra,4a8 <handle_trap>
 33c:	34151073          	csrw	mepc,a0
 340:	00812083          	lw	ra,8(sp)
 344:	01012103          	lw	sp,16(sp)
 348:	01812183          	lw	gp,24(sp)
 34c:	02012203          	lw	tp,32(sp)
 350:	02812283          	lw	t0,40(sp)
 354:	03012303          	lw	t1,48(sp)
 358:	03812383          	lw	t2,56(sp)
 35c:	04012403          	lw	s0,64(sp)
 360:	04812483          	lw	s1,72(sp)
 364:	05012503          	lw	a0,80(sp)
 368:	05812583          	lw	a1,88(sp)
 36c:	06012603          	lw	a2,96(sp)
 370:	06812683          	lw	a3,104(sp)
 374:	07012703          	lw	a4,112(sp)
 378:	07812783          	lw	a5,120(sp)
 37c:	08012803          	lw	a6,128(sp)
 380:	08812883          	lw	a7,136(sp)
 384:	09012903          	lw	s2,144(sp)
 388:	09812983          	lw	s3,152(sp)
 38c:	0a012a03          	lw	s4,160(sp)
 390:	0a812a83          	lw	s5,168(sp)
 394:	0b012b03          	lw	s6,176(sp)
 398:	0b812b83          	lw	s7,184(sp)
 39c:	0c012c03          	lw	s8,192(sp)
 3a0:	0c812c83          	lw	s9,200(sp)
 3a4:	0d012d03          	lw	s10,208(sp)
 3a8:	0d812d83          	lw	s11,216(sp)
 3ac:	0e012e03          	lw	t3,224(sp)
 3b0:	0e812e83          	lw	t4,232(sp)
 3b4:	0f012f03          	lw	t5,240(sp)
 3b8:	0f812f83          	lw	t6,248(sp)
 3bc:	11010113          	addi	sp,sp,272
 3c0:	30200073          	mret

000003c4 <vvadd>:
 3c4:	02a05663          	blez	a0,3f0 <vvadd+0x2c>
 3c8:	00251513          	slli	a0,a0,0x2
 3cc:	00a58533          	add	a0,a1,a0
 3d0:	0005a783          	lw	a5,0(a1)
 3d4:	00062703          	lw	a4,0(a2)
 3d8:	00458593          	addi	a1,a1,4
 3dc:	00460613          	addi	a2,a2,4
 3e0:	00e787b3          	add	a5,a5,a4
 3e4:	00f6a023          	sw	a5,0(a3)
 3e8:	00468693          	addi	a3,a3,4
 3ec:	fea592e3          	bne	a1,a0,3d0 <vvadd+0xc>
 3f0:	00008067          	ret

000003f4 <printInt>:
 3f4:	01051793          	slli	a5,a0,0x10
 3f8:	00020737          	lui	a4,0x20
 3fc:	0107d793          	srli	a5,a5,0x10
 400:	00e7e7b3          	or	a5,a5,a4
 404:	78079073          	csrw	mtohost,a5
 408:	000307b7          	lui	a5,0x30
 40c:	01055513          	srli	a0,a0,0x10
 410:	00f56533          	or	a0,a0,a5
 414:	78051073          	csrw	mtohost,a0
 418:	00008067          	ret

0000041c <printChar>:
 41c:	01051513          	slli	a0,a0,0x10
 420:	000107b7          	lui	a5,0x10
 424:	01055513          	srli	a0,a0,0x10
 428:	00f56533          	or	a0,a0,a5
 42c:	78051073          	csrw	mtohost,a0
 430:	00008067          	ret

00000434 <printStr>:
 434:	ffc57793          	andi	a5,a0,-4
 438:	0007a683          	lw	a3,0(a5) # 10000 <_gp+0xebb4>
 43c:	00351713          	slli	a4,a0,0x3
 440:	01877713          	andi	a4,a4,24
 444:	0ff00793          	li	a5,255
 448:	00e797b3          	sll	a5,a5,a4
 44c:	00d7f7b3          	and	a5,a5,a3
 450:	00e7d7b3          	srl	a5,a5,a4
 454:	04078063          	beqz	a5,494 <printStr+0x60>
 458:	00010637          	lui	a2,0x10
 45c:	fff60813          	addi	a6,a2,-1 # ffff <_gp+0xebb3>
 460:	0ff00593          	li	a1,255
 464:	0107f7b3          	and	a5,a5,a6
 468:	00c7e7b3          	or	a5,a5,a2
 46c:	78079073          	csrw	mtohost,a5
 470:	00150513          	addi	a0,a0,1
 474:	ffc57793          	andi	a5,a0,-4
 478:	0007a683          	lw	a3,0(a5)
 47c:	00351713          	slli	a4,a0,0x3
 480:	01877713          	andi	a4,a4,24
 484:	00e597b3          	sll	a5,a1,a4
 488:	00d7f7b3          	and	a5,a5,a3
 48c:	00e7d7b3          	srl	a5,a5,a4
 490:	fc079ae3          	bnez	a5,464 <printStr+0x30>
 494:	00008067          	ret

00000498 <toHostExit>:
 498:	01051793          	slli	a5,a0,0x10
 49c:	0107d793          	srli	a5,a5,0x10
 4a0:	78079073          	csrw	mtohost,a5
 4a4:	0000006f          	j	4a4 <toHostExit+0xc>

000004a8 <handle_trap>:
 4a8:	00458513          	addi	a0,a1,4
 4ac:	00008067          	ret

000004b0 <_init>:
 4b0:	ff010113          	addi	sp,sp,-16
 4b4:	00000593          	li	a1,0
 4b8:	00000513          	li	a0,0
 4bc:	00112623          	sw	ra,12(sp)
 4c0:	014000ef          	jal	ra,4d4 <main>
 4c4:	01051793          	slli	a5,a0,0x10
 4c8:	0107d793          	srli	a5,a5,0x10
 4cc:	78079073          	csrw	mtohost,a5
 4d0:	0000006f          	j	4d0 <_init+0x20>

Disassembly of section .text.startup:

000004d4 <main>:
 4d4:	de010113          	addi	sp,sp,-544
 4d8:	60000513          	li	a0,1536
 4dc:	20112e23          	sw	ra,540(sp)
 4e0:	20812c23          	sw	s0,536(sp)
 4e4:	20912a23          	sw	s1,532(sp)
 4e8:	21212823          	sw	s2,528(sp)
 4ec:	21312623          	sw	s3,524(sp)
 4f0:	f45ff0ef          	jal	ra,434 <printStr>
 4f4:	c0002573          	rdcycle	a0
 4f8:	c02028f3          	rdinstret	a7
 4fc:	64c00413          	li	s0,1612
 500:	20040693          	addi	a3,s0,512
 504:	00010913          	mv	s2,sp
 508:	64c00793          	li	a5,1612
 50c:	00068813          	mv	a6,a3
 510:	00090613          	mv	a2,s2
 514:	0007a703          	lw	a4,0(a5)
 518:	0006a583          	lw	a1,0(a3)
 51c:	00478793          	addi	a5,a5,4
 520:	00468693          	addi	a3,a3,4
 524:	00b70733          	add	a4,a4,a1
 528:	00e62023          	sw	a4,0(a2)
 52c:	00460613          	addi	a2,a2,4
 530:	ff0792e3          	bne	a5,a6,514 <main+0x40>
 534:	c00029f3          	rdcycle	s3
 538:	40a989b3          	sub	s3,s3,a0
 53c:	c02024f3          	rdinstret	s1
 540:	61400513          	li	a0,1556
 544:	411484b3          	sub	s1,s1,a7
 548:	eedff0ef          	jal	ra,434 <printStr>
 54c:	00098513          	mv	a0,s3
 550:	ea5ff0ef          	jal	ra,3f4 <printInt>
 554:	00a00513          	li	a0,10
 558:	ec5ff0ef          	jal	ra,41c <printChar>
 55c:	62000513          	li	a0,1568
 560:	ed5ff0ef          	jal	ra,434 <printStr>
 564:	00048513          	mv	a0,s1
 568:	e8dff0ef          	jal	ra,3f4 <printInt>
 56c:	00a00513          	li	a0,10
 570:	eadff0ef          	jal	ra,41c <printChar>
 574:	00000493          	li	s1,0
 578:	40040793          	addi	a5,s0,1024
 57c:	08000613          	li	a2,128
 580:	00c0006f          	j	58c <main+0xb8>
 584:	00478793          	addi	a5,a5,4
 588:	04c48863          	beq	s1,a2,5d8 <main+0x104>
 58c:	00092683          	lw	a3,0(s2)
 590:	0007a703          	lw	a4,0(a5)
 594:	00148493          	addi	s1,s1,1
 598:	00490913          	addi	s2,s2,4
 59c:	fee684e3          	beq	a3,a4,584 <main+0xb0>
 5a0:	62c00513          	li	a0,1580
 5a4:	e91ff0ef          	jal	ra,434 <printStr>
 5a8:	00048513          	mv	a0,s1
 5ac:	e49ff0ef          	jal	ra,3f4 <printInt>
 5b0:	00a00513          	li	a0,10
 5b4:	e69ff0ef          	jal	ra,41c <printChar>
 5b8:	21c12083          	lw	ra,540(sp)
 5bc:	21812403          	lw	s0,536(sp)
 5c0:	21012903          	lw	s2,528(sp)
 5c4:	20c12983          	lw	s3,524(sp)
 5c8:	00048513          	mv	a0,s1
 5cc:	21412483          	lw	s1,532(sp)
 5d0:	22010113          	addi	sp,sp,544
 5d4:	00008067          	ret
 5d8:	00000493          	li	s1,0
 5dc:	fc5ff06f          	j	5a0 <main+0xcc>
 5e0:	ff010113          	addi	sp,sp,-16
 5e4:	63400513          	li	a0,1588
 5e8:	00112623          	sw	ra,12(sp)
 5ec:	e49ff0ef          	jal	ra,434 <printStr>
 5f0:	00c12083          	lw	ra,12(sp)
 5f4:	fff00513          	li	a0,-1
 5f8:	01010113          	addi	sp,sp,16
 5fc:	00008067          	ret
