
/home/adam/mit_6.375/lab5-harness/programs/bigbenchmarks/../build/bigbenchmarks/bin/multiply.riscv:     file format elf32-littleriscv


Disassembly of section .text:

00000100 <user_trap_entry>:
 100:	1ac0006f          	j	2ac <trap_entry>
 104:	00000013          	nop
 108:	00000013          	nop
 10c:	00000013          	nop
 110:	00000013          	nop
 114:	00000013          	nop
 118:	00000013          	nop
 11c:	00000013          	nop
 120:	00000013          	nop
 124:	00000013          	nop
 128:	00000013          	nop
 12c:	00000013          	nop
 130:	00000013          	nop
 134:	00000013          	nop
 138:	00000013          	nop
 13c:	00000013          	nop

00000140 <supervisor_trap_entry>:
 140:	0000006f          	j	140 <supervisor_trap_entry>
 144:	00000013          	nop
 148:	00000013          	nop
 14c:	00000013          	nop
 150:	00000013          	nop
 154:	00000013          	nop
 158:	00000013          	nop
 15c:	00000013          	nop
 160:	00000013          	nop
 164:	00000013          	nop
 168:	00000013          	nop
 16c:	00000013          	nop
 170:	00000013          	nop
 174:	00000013          	nop
 178:	00000013          	nop
 17c:	00000013          	nop

00000180 <hypervisor_trap_entry>:
 180:	0000006f          	j	180 <hypervisor_trap_entry>
 184:	00000013          	nop
 188:	00000013          	nop
 18c:	00000013          	nop
 190:	00000013          	nop
 194:	00000013          	nop
 198:	00000013          	nop
 19c:	00000013          	nop
 1a0:	00000013          	nop
 1a4:	00000013          	nop
 1a8:	00000013          	nop
 1ac:	00000013          	nop
 1b0:	00000013          	nop
 1b4:	00000013          	nop
 1b8:	00000013          	nop
 1bc:	00000013          	nop

000001c0 <machine_trap_entry>:
 1c0:	0ec0006f          	j	2ac <trap_entry>
 1c4:	00000013          	nop
 1c8:	00000013          	nop
 1cc:	00000013          	nop
 1d0:	00000013          	nop
 1d4:	00000013          	nop
 1d8:	00000013          	nop
 1dc:	00000013          	nop
 1e0:	00000013          	nop
 1e4:	00000013          	nop
 1e8:	00000013          	nop
 1ec:	00000013          	nop
 1f0:	00000013          	nop
 1f4:	00000013          	nop
 1f8:	00000013          	nop
 1fc:	00000013          	nop

00000200 <_start>:
 200:	00000093          	li	ra,0
 204:	00000113          	li	sp,0
 208:	00000193          	li	gp,0
 20c:	00000213          	li	tp,0
 210:	00000293          	li	t0,0
 214:	00000313          	li	t1,0
 218:	00000393          	li	t2,0
 21c:	00000413          	li	s0,0
 220:	00000493          	li	s1,0
 224:	00000513          	li	a0,0
 228:	00000593          	li	a1,0
 22c:	00000613          	li	a2,0
 230:	00000693          	li	a3,0
 234:	00000713          	li	a4,0
 238:	00000793          	li	a5,0
 23c:	00000813          	li	a6,0
 240:	00000893          	li	a7,0
 244:	00000913          	li	s2,0
 248:	00000993          	li	s3,0
 24c:	00000a13          	li	s4,0
 250:	00000a93          	li	s5,0
 254:	00000b13          	li	s6,0
 258:	00000b93          	li	s7,0
 25c:	00000c13          	li	s8,0
 260:	00000c93          	li	s9,0
 264:	00000d13          	li	s10,0
 268:	00000d93          	li	s11,0
 26c:	00000e13          	li	t3,0
 270:	00000e93          	li	t4,0
 274:	00000f13          	li	t5,0
 278:	00000f93          	li	t6,0
 27c:	00010197          	auipc	gp,0x10
 280:	c1418193          	addi	gp,gp,-1004 # fe90 <_gp>
 284:	0000f217          	auipc	tp,0xf
 288:	44b20213          	addi	tp,tp,1099 # f6cf <_end+0x3f>
 28c:	fc027213          	andi	tp,tp,-64
 290:	f1402573          	csrr	a0,mhartid
 294:	01151613          	slli	a2,a0,0x11
 298:	00c20233          	add	tp,tp,a2
 29c:	00150113          	addi	sp,a0,1
 2a0:	01111113          	slli	sp,sp,0x11
 2a4:	00410133          	add	sp,sp,tp
 2a8:	2040006f          	j	4ac <_init>

000002ac <trap_entry>:
 2ac:	ef010113          	addi	sp,sp,-272
 2b0:	00112423          	sw	ra,8(sp)
 2b4:	00212823          	sw	sp,16(sp)
 2b8:	00312c23          	sw	gp,24(sp)
 2bc:	02412023          	sw	tp,32(sp)
 2c0:	02512423          	sw	t0,40(sp)
 2c4:	02612823          	sw	t1,48(sp)
 2c8:	02712c23          	sw	t2,56(sp)
 2cc:	04812023          	sw	s0,64(sp)
 2d0:	04912423          	sw	s1,72(sp)
 2d4:	04a12823          	sw	a0,80(sp)
 2d8:	04b12c23          	sw	a1,88(sp)
 2dc:	06c12023          	sw	a2,96(sp)
 2e0:	06d12423          	sw	a3,104(sp)
 2e4:	06e12823          	sw	a4,112(sp)
 2e8:	06f12c23          	sw	a5,120(sp)
 2ec:	09012023          	sw	a6,128(sp)
 2f0:	09112423          	sw	a7,136(sp)
 2f4:	09212823          	sw	s2,144(sp)
 2f8:	09312c23          	sw	s3,152(sp)
 2fc:	0b412023          	sw	s4,160(sp)
 300:	0b512423          	sw	s5,168(sp)
 304:	0b612823          	sw	s6,176(sp)
 308:	0b712c23          	sw	s7,184(sp)
 30c:	0d812023          	sw	s8,192(sp)
 310:	0d912423          	sw	s9,200(sp)
 314:	0da12823          	sw	s10,208(sp)
 318:	0db12c23          	sw	s11,216(sp)
 31c:	0fc12023          	sw	t3,224(sp)
 320:	0fd12423          	sw	t4,232(sp)
 324:	0fe12823          	sw	t5,240(sp)
 328:	0ff12c23          	sw	t6,248(sp)
 32c:	34202573          	csrr	a0,mcause
 330:	341025f3          	csrr	a1,mepc
 334:	00010613          	mv	a2,sp
 338:	16c000ef          	jal	ra,4a4 <handle_trap>
 33c:	34151073          	csrw	mepc,a0
 340:	00812083          	lw	ra,8(sp)
 344:	01012103          	lw	sp,16(sp)
 348:	01812183          	lw	gp,24(sp)
 34c:	02012203          	lw	tp,32(sp)
 350:	02812283          	lw	t0,40(sp)
 354:	03012303          	lw	t1,48(sp)
 358:	03812383          	lw	t2,56(sp)
 35c:	04012403          	lw	s0,64(sp)
 360:	04812483          	lw	s1,72(sp)
 364:	05012503          	lw	a0,80(sp)
 368:	05812583          	lw	a1,88(sp)
 36c:	06012603          	lw	a2,96(sp)
 370:	06812683          	lw	a3,104(sp)
 374:	07012703          	lw	a4,112(sp)
 378:	07812783          	lw	a5,120(sp)
 37c:	08012803          	lw	a6,128(sp)
 380:	08812883          	lw	a7,136(sp)
 384:	09012903          	lw	s2,144(sp)
 388:	09812983          	lw	s3,152(sp)
 38c:	0a012a03          	lw	s4,160(sp)
 390:	0a812a83          	lw	s5,168(sp)
 394:	0b012b03          	lw	s6,176(sp)
 398:	0b812b83          	lw	s7,184(sp)
 39c:	0c012c03          	lw	s8,192(sp)
 3a0:	0c812c83          	lw	s9,200(sp)
 3a4:	0d012d03          	lw	s10,208(sp)
 3a8:	0d812d83          	lw	s11,216(sp)
 3ac:	0e012e03          	lw	t3,224(sp)
 3b0:	0e812e83          	lw	t4,232(sp)
 3b4:	0f012f03          	lw	t5,240(sp)
 3b8:	0f812f83          	lw	t6,248(sp)
 3bc:	11010113          	addi	sp,sp,272
 3c0:	30200073          	mret

000003c4 <multiply>:
 3c4:	00050713          	mv	a4,a0
 3c8:	02000693          	li	a3,32
 3cc:	00000513          	li	a0,0
 3d0:	00177793          	andi	a5,a4,1
 3d4:	fff68693          	addi	a3,a3,-1
 3d8:	00078463          	beqz	a5,3e0 <multiply+0x1c>
 3dc:	00b50533          	add	a0,a0,a1
 3e0:	40175713          	srai	a4,a4,0x1
 3e4:	00159593          	slli	a1,a1,0x1
 3e8:	fe0694e3          	bnez	a3,3d0 <multiply+0xc>
 3ec:	00008067          	ret

000003f0 <printInt>:
 3f0:	01051793          	slli	a5,a0,0x10
 3f4:	00020737          	lui	a4,0x20
 3f8:	0107d793          	srli	a5,a5,0x10
 3fc:	00e7e7b3          	or	a5,a5,a4
 400:	78079073          	csrw	mtohost,a5
 404:	000307b7          	lui	a5,0x30
 408:	01055513          	srli	a0,a0,0x10
 40c:	00f56533          	or	a0,a0,a5
 410:	78051073          	csrw	mtohost,a0
 414:	00008067          	ret

00000418 <printChar>:
 418:	01051513          	slli	a0,a0,0x10
 41c:	000107b7          	lui	a5,0x10
 420:	01055513          	srli	a0,a0,0x10
 424:	00f56533          	or	a0,a0,a5
 428:	78051073          	csrw	mtohost,a0
 42c:	00008067          	ret

00000430 <printStr>:
 430:	ffc57793          	andi	a5,a0,-4
 434:	0007a683          	lw	a3,0(a5) # 10000 <_gp+0x170>
 438:	00351713          	slli	a4,a0,0x3
 43c:	01877713          	andi	a4,a4,24
 440:	0ff00793          	li	a5,255
 444:	00e797b3          	sll	a5,a5,a4
 448:	00d7f7b3          	and	a5,a5,a3
 44c:	00e7d7b3          	srl	a5,a5,a4
 450:	04078063          	beqz	a5,490 <printStr+0x60>
 454:	00010637          	lui	a2,0x10
 458:	fff60813          	addi	a6,a2,-1 # ffff <_gp+0x16f>
 45c:	0ff00593          	li	a1,255
 460:	0107f7b3          	and	a5,a5,a6
 464:	00c7e7b3          	or	a5,a5,a2
 468:	78079073          	csrw	mtohost,a5
 46c:	00150513          	addi	a0,a0,1
 470:	ffc57793          	andi	a5,a0,-4
 474:	0007a683          	lw	a3,0(a5)
 478:	00351713          	slli	a4,a0,0x3
 47c:	01877713          	andi	a4,a4,24
 480:	00e597b3          	sll	a5,a1,a4
 484:	00d7f7b3          	and	a5,a5,a3
 488:	00e7d7b3          	srl	a5,a5,a4
 48c:	fc079ae3          	bnez	a5,460 <printStr+0x30>
 490:	00008067          	ret

00000494 <toHostExit>:
 494:	01051793          	slli	a5,a0,0x10
 498:	0107d793          	srli	a5,a5,0x10
 49c:	78079073          	csrw	mtohost,a5
 4a0:	0000006f          	j	4a0 <toHostExit+0xc>

000004a4 <handle_trap>:
 4a4:	00458513          	addi	a0,a1,4
 4a8:	00008067          	ret

000004ac <_init>:
 4ac:	ff010113          	addi	sp,sp,-16
 4b0:	00000593          	li	a1,0
 4b4:	00000513          	li	a0,0
 4b8:	00112623          	sw	ra,12(sp)
 4bc:	014000ef          	jal	ra,4d0 <main>
 4c0:	01051793          	slli	a5,a0,0x10
 4c4:	0107d793          	srli	a5,a5,0x10
 4c8:	78079073          	csrw	mtohost,a5
 4cc:	0000006f          	j	4cc <_init+0x20>

Disassembly of section .text.startup:

000004d0 <main>:
 4d0:	ffffb2b7          	lui	t0,0xffffb
 4d4:	81010113          	addi	sp,sp,-2032
 4d8:	7d028293          	addi	t0,t0,2000 # ffffb7d0 <_gp+0xfffeb940>
 4dc:	7e112623          	sw	ra,2028(sp)
 4e0:	7e812423          	sw	s0,2024(sp)
 4e4:	7e912223          	sw	s1,2020(sp)
 4e8:	7f212023          	sw	s2,2016(sp)
 4ec:	7d312e23          	sw	s3,2012(sp)
 4f0:	7d412c23          	sw	s4,2008(sp)
 4f4:	7d512a23          	sw	s5,2004(sp)
 4f8:	7d612823          	sw	s6,2000(sp)
 4fc:	64400513          	li	a0,1604
 500:	00510133          	add	sp,sp,t0
 504:	f2dff0ef          	jal	ra,430 <printStr>
 508:	c0002b73          	rdcycle	s6
 50c:	c0202af3          	rdinstret	s5
 510:	ffffba37          	lui	s4,0xffffb
 514:	000057b7          	lui	a5,0x5
 518:	0000a437          	lui	s0,0xa
 51c:	014787b3          	add	a5,a5,s4
 520:	69040413          	addi	s0,s0,1680 # a690 <input_data1>
 524:	00278a33          	add	s4,a5,sp
 528:	000054b7          	lui	s1,0x5
 52c:	000059b7          	lui	s3,0x5
 530:	69048493          	addi	s1,s1,1680 # 5690 <input_data2>
 534:	013409b3          	add	s3,s0,s3
 538:	000a0913          	mv	s2,s4
 53c:	0004a583          	lw	a1,0(s1)
 540:	00042503          	lw	a0,0(s0)
 544:	00440413          	addi	s0,s0,4
 548:	00448493          	addi	s1,s1,4
 54c:	e79ff0ef          	jal	ra,3c4 <multiply>
 550:	00a92023          	sw	a0,0(s2)
 554:	00490913          	addi	s2,s2,4
 558:	ff3412e3          	bne	s0,s3,53c <main+0x6c>
 55c:	c00024f3          	rdcycle	s1
 560:	416484b3          	sub	s1,s1,s6
 564:	c0202473          	rdinstret	s0
 568:	65800513          	li	a0,1624
 56c:	ec5ff0ef          	jal	ra,430 <printStr>
 570:	00048513          	mv	a0,s1
 574:	e7dff0ef          	jal	ra,3f0 <printInt>
 578:	00a00513          	li	a0,10
 57c:	e9dff0ef          	jal	ra,418 <printChar>
 580:	66400513          	li	a0,1636
 584:	eadff0ef          	jal	ra,430 <printStr>
 588:	41540433          	sub	s0,s0,s5
 58c:	00040513          	mv	a0,s0
 590:	e61ff0ef          	jal	ra,3f0 <printInt>
 594:	00a00513          	li	a0,10
 598:	e81ff0ef          	jal	ra,418 <printChar>
 59c:	00001637          	lui	a2,0x1
 5a0:	69000793          	li	a5,1680
 5a4:	00000413          	li	s0,0
 5a8:	40060613          	addi	a2,a2,1024 # 1400 <verify_data+0xd70>
 5ac:	00c0006f          	j	5b8 <main+0xe8>
 5b0:	00478793          	addi	a5,a5,4 # 5004 <verify_data+0x4974>
 5b4:	06c40463          	beq	s0,a2,61c <main+0x14c>
 5b8:	000a2683          	lw	a3,0(s4) # ffffb000 <_gp+0xfffeb170>
 5bc:	0007a703          	lw	a4,0(a5)
 5c0:	00140413          	addi	s0,s0,1
 5c4:	004a0a13          	addi	s4,s4,4
 5c8:	fee684e3          	beq	a3,a4,5b0 <main+0xe0>
 5cc:	67000513          	li	a0,1648
 5d0:	e61ff0ef          	jal	ra,430 <printStr>
 5d4:	00040513          	mv	a0,s0
 5d8:	e19ff0ef          	jal	ra,3f0 <printInt>
 5dc:	00a00513          	li	a0,10
 5e0:	e39ff0ef          	jal	ra,418 <printChar>
 5e4:	000052b7          	lui	t0,0x5
 5e8:	83028293          	addi	t0,t0,-2000 # 4830 <verify_data+0x41a0>
 5ec:	00510133          	add	sp,sp,t0
 5f0:	7ec12083          	lw	ra,2028(sp)
 5f4:	00040513          	mv	a0,s0
 5f8:	7e412483          	lw	s1,2020(sp)
 5fc:	7e812403          	lw	s0,2024(sp)
 600:	7e012903          	lw	s2,2016(sp)
 604:	7dc12983          	lw	s3,2012(sp)
 608:	7d812a03          	lw	s4,2008(sp)
 60c:	7d412a83          	lw	s5,2004(sp)
 610:	7d012b03          	lw	s6,2000(sp)
 614:	7f010113          	addi	sp,sp,2032
 618:	00008067          	ret
 61c:	00000413          	li	s0,0
 620:	fadff06f          	j	5cc <main+0xfc>
 624:	ff010113          	addi	sp,sp,-16
 628:	67800513          	li	a0,1656
 62c:	00112623          	sw	ra,12(sp)
 630:	e01ff0ef          	jal	ra,430 <printStr>
 634:	00c12083          	lw	ra,12(sp)
 638:	fff00513          	li	a0,-1
 63c:	01010113          	addi	sp,sp,16
 640:	00008067          	ret
