
/home/adam/mit_6.375/lab5-harness/programs/bigbenchmarks/../build/bigbenchmarks/bin/vvadd.riscv:     file format elf32-littleriscv


Disassembly of section .text:

00000100 <user_trap_entry>:
 100:	1ac0006f          	j	2ac <trap_entry>
 104:	00000013          	nop
 108:	00000013          	nop
 10c:	00000013          	nop
 110:	00000013          	nop
 114:	00000013          	nop
 118:	00000013          	nop
 11c:	00000013          	nop
 120:	00000013          	nop
 124:	00000013          	nop
 128:	00000013          	nop
 12c:	00000013          	nop
 130:	00000013          	nop
 134:	00000013          	nop
 138:	00000013          	nop
 13c:	00000013          	nop

00000140 <supervisor_trap_entry>:
 140:	0000006f          	j	140 <supervisor_trap_entry>
 144:	00000013          	nop
 148:	00000013          	nop
 14c:	00000013          	nop
 150:	00000013          	nop
 154:	00000013          	nop
 158:	00000013          	nop
 15c:	00000013          	nop
 160:	00000013          	nop
 164:	00000013          	nop
 168:	00000013          	nop
 16c:	00000013          	nop
 170:	00000013          	nop
 174:	00000013          	nop
 178:	00000013          	nop
 17c:	00000013          	nop

00000180 <hypervisor_trap_entry>:
 180:	0000006f          	j	180 <hypervisor_trap_entry>
 184:	00000013          	nop
 188:	00000013          	nop
 18c:	00000013          	nop
 190:	00000013          	nop
 194:	00000013          	nop
 198:	00000013          	nop
 19c:	00000013          	nop
 1a0:	00000013          	nop
 1a4:	00000013          	nop
 1a8:	00000013          	nop
 1ac:	00000013          	nop
 1b0:	00000013          	nop
 1b4:	00000013          	nop
 1b8:	00000013          	nop
 1bc:	00000013          	nop

000001c0 <machine_trap_entry>:
 1c0:	0ec0006f          	j	2ac <trap_entry>
 1c4:	00000013          	nop
 1c8:	00000013          	nop
 1cc:	00000013          	nop
 1d0:	00000013          	nop
 1d4:	00000013          	nop
 1d8:	00000013          	nop
 1dc:	00000013          	nop
 1e0:	00000013          	nop
 1e4:	00000013          	nop
 1e8:	00000013          	nop
 1ec:	00000013          	nop
 1f0:	00000013          	nop
 1f4:	00000013          	nop
 1f8:	00000013          	nop
 1fc:	00000013          	nop

00000200 <_start>:
 200:	00000093          	li	ra,0
 204:	00000113          	li	sp,0
 208:	00000193          	li	gp,0
 20c:	00000213          	li	tp,0
 210:	00000293          	li	t0,0
 214:	00000313          	li	t1,0
 218:	00000393          	li	t2,0
 21c:	00000413          	li	s0,0
 220:	00000493          	li	s1,0
 224:	00000513          	li	a0,0
 228:	00000593          	li	a1,0
 22c:	00000613          	li	a2,0
 230:	00000693          	li	a3,0
 234:	00000713          	li	a4,0
 238:	00000793          	li	a5,0
 23c:	00000813          	li	a6,0
 240:	00000893          	li	a7,0
 244:	00000913          	li	s2,0
 248:	00000993          	li	s3,0
 24c:	00000a13          	li	s4,0
 250:	00000a93          	li	s5,0
 254:	00000b13          	li	s6,0
 258:	00000b93          	li	s7,0
 25c:	00000c13          	li	s8,0
 260:	00000c93          	li	s9,0
 264:	00000d13          	li	s10,0
 268:	00000d93          	li	s11,0
 26c:	00000e13          	li	t3,0
 270:	00000e93          	li	t4,0
 274:	00000f13          	li	t5,0
 278:	00000f93          	li	t6,0
 27c:	00010197          	auipc	gp,0x10
 280:	bf818193          	addi	gp,gp,-1032 # fe74 <_gp>
 284:	0000f217          	auipc	tp,0xf
 288:	42f20213          	addi	tp,tp,1071 # f6b3 <_end+0x3f>
 28c:	fc027213          	andi	tp,tp,-64
 290:	f1402573          	csrr	a0,mhartid
 294:	01151613          	slli	a2,a0,0x11
 298:	00c20233          	add	tp,tp,a2
 29c:	00150113          	addi	sp,a0,1
 2a0:	01111113          	slli	sp,sp,0x11
 2a4:	00410133          	add	sp,sp,tp
 2a8:	2080006f          	j	4b0 <_init>

000002ac <trap_entry>:
 2ac:	ef010113          	addi	sp,sp,-272
 2b0:	00112423          	sw	ra,8(sp)
 2b4:	00212823          	sw	sp,16(sp)
 2b8:	00312c23          	sw	gp,24(sp)
 2bc:	02412023          	sw	tp,32(sp)
 2c0:	02512423          	sw	t0,40(sp)
 2c4:	02612823          	sw	t1,48(sp)
 2c8:	02712c23          	sw	t2,56(sp)
 2cc:	04812023          	sw	s0,64(sp)
 2d0:	04912423          	sw	s1,72(sp)
 2d4:	04a12823          	sw	a0,80(sp)
 2d8:	04b12c23          	sw	a1,88(sp)
 2dc:	06c12023          	sw	a2,96(sp)
 2e0:	06d12423          	sw	a3,104(sp)
 2e4:	06e12823          	sw	a4,112(sp)
 2e8:	06f12c23          	sw	a5,120(sp)
 2ec:	09012023          	sw	a6,128(sp)
 2f0:	09112423          	sw	a7,136(sp)
 2f4:	09212823          	sw	s2,144(sp)
 2f8:	09312c23          	sw	s3,152(sp)
 2fc:	0b412023          	sw	s4,160(sp)
 300:	0b512423          	sw	s5,168(sp)
 304:	0b612823          	sw	s6,176(sp)
 308:	0b712c23          	sw	s7,184(sp)
 30c:	0d812023          	sw	s8,192(sp)
 310:	0d912423          	sw	s9,200(sp)
 314:	0da12823          	sw	s10,208(sp)
 318:	0db12c23          	sw	s11,216(sp)
 31c:	0fc12023          	sw	t3,224(sp)
 320:	0fd12423          	sw	t4,232(sp)
 324:	0fe12823          	sw	t5,240(sp)
 328:	0ff12c23          	sw	t6,248(sp)
 32c:	34202573          	csrr	a0,mcause
 330:	341025f3          	csrr	a1,mepc
 334:	00010613          	mv	a2,sp
 338:	170000ef          	jal	ra,4a8 <handle_trap>
 33c:	34151073          	csrw	mepc,a0
 340:	00812083          	lw	ra,8(sp)
 344:	01012103          	lw	sp,16(sp)
 348:	01812183          	lw	gp,24(sp)
 34c:	02012203          	lw	tp,32(sp)
 350:	02812283          	lw	t0,40(sp)
 354:	03012303          	lw	t1,48(sp)
 358:	03812383          	lw	t2,56(sp)
 35c:	04012403          	lw	s0,64(sp)
 360:	04812483          	lw	s1,72(sp)
 364:	05012503          	lw	a0,80(sp)
 368:	05812583          	lw	a1,88(sp)
 36c:	06012603          	lw	a2,96(sp)
 370:	06812683          	lw	a3,104(sp)
 374:	07012703          	lw	a4,112(sp)
 378:	07812783          	lw	a5,120(sp)
 37c:	08012803          	lw	a6,128(sp)
 380:	08812883          	lw	a7,136(sp)
 384:	09012903          	lw	s2,144(sp)
 388:	09812983          	lw	s3,152(sp)
 38c:	0a012a03          	lw	s4,160(sp)
 390:	0a812a83          	lw	s5,168(sp)
 394:	0b012b03          	lw	s6,176(sp)
 398:	0b812b83          	lw	s7,184(sp)
 39c:	0c012c03          	lw	s8,192(sp)
 3a0:	0c812c83          	lw	s9,200(sp)
 3a4:	0d012d03          	lw	s10,208(sp)
 3a8:	0d812d83          	lw	s11,216(sp)
 3ac:	0e012e03          	lw	t3,224(sp)
 3b0:	0e812e83          	lw	t4,232(sp)
 3b4:	0f012f03          	lw	t5,240(sp)
 3b8:	0f812f83          	lw	t6,248(sp)
 3bc:	11010113          	addi	sp,sp,272
 3c0:	30200073          	mret

000003c4 <vvadd>:
 3c4:	02a05663          	blez	a0,3f0 <vvadd+0x2c>
 3c8:	00251513          	slli	a0,a0,0x2
 3cc:	00a58533          	add	a0,a1,a0
 3d0:	0005a783          	lw	a5,0(a1)
 3d4:	00062703          	lw	a4,0(a2)
 3d8:	00458593          	addi	a1,a1,4
 3dc:	00460613          	addi	a2,a2,4
 3e0:	00e787b3          	add	a5,a5,a4
 3e4:	00f6a023          	sw	a5,0(a3)
 3e8:	00468693          	addi	a3,a3,4
 3ec:	fea592e3          	bne	a1,a0,3d0 <vvadd+0xc>
 3f0:	00008067          	ret

000003f4 <printInt>:
 3f4:	01051793          	slli	a5,a0,0x10
 3f8:	00020737          	lui	a4,0x20
 3fc:	0107d793          	srli	a5,a5,0x10
 400:	00e7e7b3          	or	a5,a5,a4
 404:	78079073          	csrw	mtohost,a5
 408:	000307b7          	lui	a5,0x30
 40c:	01055513          	srli	a0,a0,0x10
 410:	00f56533          	or	a0,a0,a5
 414:	78051073          	csrw	mtohost,a0
 418:	00008067          	ret

0000041c <printChar>:
 41c:	01051513          	slli	a0,a0,0x10
 420:	000107b7          	lui	a5,0x10
 424:	01055513          	srli	a0,a0,0x10
 428:	00f56533          	or	a0,a0,a5
 42c:	78051073          	csrw	mtohost,a0
 430:	00008067          	ret

00000434 <printStr>:
 434:	ffc57793          	andi	a5,a0,-4
 438:	0007a683          	lw	a3,0(a5) # 10000 <_gp+0x18c>
 43c:	00351713          	slli	a4,a0,0x3
 440:	01877713          	andi	a4,a4,24
 444:	0ff00793          	li	a5,255
 448:	00e797b3          	sll	a5,a5,a4
 44c:	00d7f7b3          	and	a5,a5,a3
 450:	00e7d7b3          	srl	a5,a5,a4
 454:	04078063          	beqz	a5,494 <printStr+0x60>
 458:	00010637          	lui	a2,0x10
 45c:	fff60813          	addi	a6,a2,-1 # ffff <_gp+0x18b>
 460:	0ff00593          	li	a1,255
 464:	0107f7b3          	and	a5,a5,a6
 468:	00c7e7b3          	or	a5,a5,a2
 46c:	78079073          	csrw	mtohost,a5
 470:	00150513          	addi	a0,a0,1
 474:	ffc57793          	andi	a5,a0,-4
 478:	0007a683          	lw	a3,0(a5)
 47c:	00351713          	slli	a4,a0,0x3
 480:	01877713          	andi	a4,a4,24
 484:	00e597b3          	sll	a5,a1,a4
 488:	00d7f7b3          	and	a5,a5,a3
 48c:	00e7d7b3          	srl	a5,a5,a4
 490:	fc079ae3          	bnez	a5,464 <printStr+0x30>
 494:	00008067          	ret

00000498 <toHostExit>:
 498:	01051793          	slli	a5,a0,0x10
 49c:	0107d793          	srli	a5,a5,0x10
 4a0:	78079073          	csrw	mtohost,a5
 4a4:	0000006f          	j	4a4 <toHostExit+0xc>

000004a8 <handle_trap>:
 4a8:	00458513          	addi	a0,a1,4
 4ac:	00008067          	ret

000004b0 <_init>:
 4b0:	ff010113          	addi	sp,sp,-16
 4b4:	00000593          	li	a1,0
 4b8:	00000513          	li	a0,0
 4bc:	00112623          	sw	ra,12(sp)
 4c0:	014000ef          	jal	ra,4d4 <main>
 4c4:	01051793          	slli	a5,a0,0x10
 4c8:	0107d793          	srli	a5,a5,0x10
 4cc:	78079073          	csrw	mtohost,a5
 4d0:	0000006f          	j	4d0 <_init+0x20>

Disassembly of section .text.startup:

000004d4 <main>:
 4d4:	ffffb2b7          	lui	t0,0xffffb
 4d8:	81010113          	addi	sp,sp,-2032
 4dc:	7e028293          	addi	t0,t0,2016 # ffffb7e0 <_gp+0xfffeb96c>
 4e0:	7e112623          	sw	ra,2028(sp)
 4e4:	7e812423          	sw	s0,2024(sp)
 4e8:	7e912223          	sw	s1,2020(sp)
 4ec:	7f212023          	sw	s2,2016(sp)
 4f0:	62800513          	li	a0,1576
 4f4:	00510133          	add	sp,sp,t0
 4f8:	f3dff0ef          	jal	ra,434 <printStr>
 4fc:	c0002573          	rdcycle	a0
 500:	c02028f3          	rdinstret	a7
 504:	ffffb437          	lui	s0,0xffffb
 508:	00005737          	lui	a4,0x5
 50c:	0000a7b7          	lui	a5,0xa
 510:	00870733          	add	a4,a4,s0
 514:	67478793          	addi	a5,a5,1652 # a674 <input1_data>
 518:	00270433          	add	s0,a4,sp
 51c:	000056b7          	lui	a3,0x5
 520:	00005837          	lui	a6,0x5
 524:	67468693          	addi	a3,a3,1652 # 5674 <input2_data>
 528:	01078833          	add	a6,a5,a6
 52c:	00040613          	mv	a2,s0
 530:	0007a703          	lw	a4,0(a5)
 534:	0006a583          	lw	a1,0(a3)
 538:	00478793          	addi	a5,a5,4
 53c:	00468693          	addi	a3,a3,4
 540:	00b70733          	add	a4,a4,a1
 544:	00e62023          	sw	a4,0(a2)
 548:	00460613          	addi	a2,a2,4
 54c:	ff0792e3          	bne	a5,a6,530 <main+0x5c>
 550:	c0002973          	rdcycle	s2
 554:	40a90933          	sub	s2,s2,a0
 558:	c02024f3          	rdinstret	s1
 55c:	63c00513          	li	a0,1596
 560:	411484b3          	sub	s1,s1,a7
 564:	ed1ff0ef          	jal	ra,434 <printStr>
 568:	00090513          	mv	a0,s2
 56c:	e89ff0ef          	jal	ra,3f4 <printInt>
 570:	00a00513          	li	a0,10
 574:	ea9ff0ef          	jal	ra,41c <printChar>
 578:	64800513          	li	a0,1608
 57c:	eb9ff0ef          	jal	ra,434 <printStr>
 580:	00048513          	mv	a0,s1
 584:	e71ff0ef          	jal	ra,3f4 <printInt>
 588:	00a00513          	li	a0,10
 58c:	e91ff0ef          	jal	ra,41c <printChar>
 590:	00001637          	lui	a2,0x1
 594:	67400793          	li	a5,1652
 598:	00000493          	li	s1,0
 59c:	40060613          	addi	a2,a2,1024 # 1400 <verify_data+0xd8c>
 5a0:	00c0006f          	j	5ac <main+0xd8>
 5a4:	00478793          	addi	a5,a5,4
 5a8:	04c48c63          	beq	s1,a2,600 <main+0x12c>
 5ac:	00042683          	lw	a3,0(s0) # ffffb000 <_gp+0xfffeb18c>
 5b0:	0007a703          	lw	a4,0(a5)
 5b4:	00148493          	addi	s1,s1,1
 5b8:	00440413          	addi	s0,s0,4
 5bc:	fee684e3          	beq	a3,a4,5a4 <main+0xd0>
 5c0:	65400513          	li	a0,1620
 5c4:	e71ff0ef          	jal	ra,434 <printStr>
 5c8:	00048513          	mv	a0,s1
 5cc:	e29ff0ef          	jal	ra,3f4 <printInt>
 5d0:	00a00513          	li	a0,10
 5d4:	e49ff0ef          	jal	ra,41c <printChar>
 5d8:	000052b7          	lui	t0,0x5
 5dc:	82028293          	addi	t0,t0,-2016 # 4820 <verify_data+0x41ac>
 5e0:	00510133          	add	sp,sp,t0
 5e4:	7ec12083          	lw	ra,2028(sp)
 5e8:	00048513          	mv	a0,s1
 5ec:	7e812403          	lw	s0,2024(sp)
 5f0:	7e412483          	lw	s1,2020(sp)
 5f4:	7e012903          	lw	s2,2016(sp)
 5f8:	7f010113          	addi	sp,sp,2032
 5fc:	00008067          	ret
 600:	00000493          	li	s1,0
 604:	fbdff06f          	j	5c0 <main+0xec>
 608:	ff010113          	addi	sp,sp,-16
 60c:	65c00513          	li	a0,1628
 610:	00112623          	sw	ra,12(sp)
 614:	e21ff0ef          	jal	ra,434 <printStr>
 618:	00c12083          	lw	ra,12(sp)
 61c:	fff00513          	li	a0,-1
 620:	01010113          	addi	sp,sp,16
 624:	00008067          	ret
