
/home/adam/Documents/lab8/programs/benchmarks/../build/excep/bin/towers.riscv:     file format elf32-littleriscv


Disassembly of section .text:

00000100 <user_trap_entry>:
 100:	1c40006f          	j	2c4 <trap_entry>
 104:	00000013          	nop
 108:	00000013          	nop
 10c:	00000013          	nop
 110:	00000013          	nop
 114:	00000013          	nop
 118:	00000013          	nop
 11c:	00000013          	nop
 120:	00000013          	nop
 124:	00000013          	nop
 128:	00000013          	nop
 12c:	00000013          	nop
 130:	00000013          	nop
 134:	00000013          	nop
 138:	00000013          	nop
 13c:	00000013          	nop

00000140 <supervisor_trap_entry>:
 140:	0000006f          	j	140 <supervisor_trap_entry>
 144:	00000013          	nop
 148:	00000013          	nop
 14c:	00000013          	nop
 150:	00000013          	nop
 154:	00000013          	nop
 158:	00000013          	nop
 15c:	00000013          	nop
 160:	00000013          	nop
 164:	00000013          	nop
 168:	00000013          	nop
 16c:	00000013          	nop
 170:	00000013          	nop
 174:	00000013          	nop
 178:	00000013          	nop
 17c:	00000013          	nop

00000180 <hypervisor_trap_entry>:
 180:	0000006f          	j	180 <hypervisor_trap_entry>
 184:	00000013          	nop
 188:	00000013          	nop
 18c:	00000013          	nop
 190:	00000013          	nop
 194:	00000013          	nop
 198:	00000013          	nop
 19c:	00000013          	nop
 1a0:	00000013          	nop
 1a4:	00000013          	nop
 1a8:	00000013          	nop
 1ac:	00000013          	nop
 1b0:	00000013          	nop
 1b4:	00000013          	nop
 1b8:	00000013          	nop
 1bc:	00000013          	nop

000001c0 <machine_trap_entry>:
 1c0:	1040006f          	j	2c4 <trap_entry>
 1c4:	00000013          	nop
 1c8:	00000013          	nop
 1cc:	00000013          	nop
 1d0:	00000013          	nop
 1d4:	00000013          	nop
 1d8:	00000013          	nop
 1dc:	00000013          	nop
 1e0:	00000013          	nop
 1e4:	00000013          	nop
 1e8:	00000013          	nop
 1ec:	00000013          	nop
 1f0:	00000013          	nop
 1f4:	00000013          	nop
 1f8:	00000013          	nop
 1fc:	00000013          	nop

00000200 <_start>:
 200:	00000093          	li	ra,0
 204:	00000113          	li	sp,0
 208:	00000193          	li	gp,0
 20c:	00000213          	li	tp,0
 210:	00000293          	li	t0,0
 214:	00000313          	li	t1,0
 218:	00000393          	li	t2,0
 21c:	00000413          	li	s0,0
 220:	00000493          	li	s1,0
 224:	00000513          	li	a0,0
 228:	00000593          	li	a1,0
 22c:	00000613          	li	a2,0
 230:	00000693          	li	a3,0
 234:	00000713          	li	a4,0
 238:	00000793          	li	a5,0
 23c:	00000813          	li	a6,0
 240:	00000893          	li	a7,0
 244:	00000913          	li	s2,0
 248:	00000993          	li	s3,0
 24c:	00000a13          	li	s4,0
 250:	00000a93          	li	s5,0
 254:	00000b13          	li	s6,0
 258:	00000b93          	li	s7,0
 25c:	00000c13          	li	s8,0
 260:	00000c93          	li	s9,0
 264:	00000d13          	li	s10,0
 268:	00000d93          	li	s11,0
 26c:	00000e13          	li	t3,0
 270:	00000e93          	li	t4,0
 274:	00000f13          	li	t5,0
 278:	00000f93          	li	t6,0
 27c:	00002197          	auipc	gp,0x2
 280:	88418193          	addi	gp,gp,-1916 # 1b00 <_gp_ptr>
 284:	00001217          	auipc	tp,0x1
 288:	0fb20213          	addi	tp,tp,251 # 137f <_end+0x3f>
 28c:	fc027213          	andi	tp,tp,-64
 290:	f1402573          	csrr	a0,mhartid
 294:	01151613          	slli	a2,a0,0x11
 298:	00c20233          	add	tp,tp,a2
 29c:	00150113          	addi	sp,a0,1
 2a0:	01111113          	slli	sp,sp,0x11
 2a4:	00410133          	add	sp,sp,tp
 2a8:	00001297          	auipc	t0,0x1
 2ac:	05828293          	addi	t0,t0,88 # 1300 <g_nodeFreeList>
 2b0:	34029073          	csrw	mscratch,t0
 2b4:	00001297          	auipc	t0,0x1
 2b8:	a8828293          	addi	t0,t0,-1400 # d3c <_init>
 2bc:	34129073          	csrw	mepc,t0
 2c0:	30200073          	mret

000002c4 <trap_entry>:
 2c4:	34011173          	csrrw	sp,mscratch,sp
 2c8:	f8010113          	addi	sp,sp,-128
 2cc:	00112223          	sw	ra,4(sp)
 2d0:	00312623          	sw	gp,12(sp)
 2d4:	00412823          	sw	tp,16(sp)
 2d8:	00512a23          	sw	t0,20(sp)
 2dc:	00612c23          	sw	t1,24(sp)
 2e0:	00712e23          	sw	t2,28(sp)
 2e4:	02812023          	sw	s0,32(sp)
 2e8:	02912223          	sw	s1,36(sp)
 2ec:	02a12423          	sw	a0,40(sp)
 2f0:	02b12623          	sw	a1,44(sp)
 2f4:	02c12823          	sw	a2,48(sp)
 2f8:	02d12a23          	sw	a3,52(sp)
 2fc:	02e12c23          	sw	a4,56(sp)
 300:	02f12e23          	sw	a5,60(sp)
 304:	05012023          	sw	a6,64(sp)
 308:	05112223          	sw	a7,68(sp)
 30c:	05212423          	sw	s2,72(sp)
 310:	05312623          	sw	s3,76(sp)
 314:	05412823          	sw	s4,80(sp)
 318:	05512a23          	sw	s5,84(sp)
 31c:	05612c23          	sw	s6,88(sp)
 320:	05712e23          	sw	s7,92(sp)
 324:	07812023          	sw	s8,96(sp)
 328:	07912223          	sw	s9,100(sp)
 32c:	07a12423          	sw	s10,104(sp)
 330:	07b12623          	sw	s11,108(sp)
 334:	07c12823          	sw	t3,112(sp)
 338:	07d12a23          	sw	t4,116(sp)
 33c:	07e12c23          	sw	t5,120(sp)
 340:	07f12e23          	sw	t6,124(sp)
 344:	340022f3          	csrr	t0,mscratch
 348:	00512423          	sw	t0,8(sp)
 34c:	34202573          	csrr	a0,mcause
 350:	341025f3          	csrr	a1,mepc
 354:	00010613          	mv	a2,sp
 358:	065000ef          	jal	ra,bbc <handle_trap>
 35c:	34151073          	csrw	mepc,a0
 360:	08010293          	addi	t0,sp,128
 364:	34029073          	csrw	mscratch,t0
 368:	00412083          	lw	ra,4(sp)
 36c:	00c12183          	lw	gp,12(sp)
 370:	01012203          	lw	tp,16(sp)
 374:	01412283          	lw	t0,20(sp)
 378:	01812303          	lw	t1,24(sp)
 37c:	01c12383          	lw	t2,28(sp)
 380:	02012403          	lw	s0,32(sp)
 384:	02412483          	lw	s1,36(sp)
 388:	02812503          	lw	a0,40(sp)
 38c:	02c12583          	lw	a1,44(sp)
 390:	03012603          	lw	a2,48(sp)
 394:	03412683          	lw	a3,52(sp)
 398:	03812703          	lw	a4,56(sp)
 39c:	03c12783          	lw	a5,60(sp)
 3a0:	04012803          	lw	a6,64(sp)
 3a4:	04412883          	lw	a7,68(sp)
 3a8:	04812903          	lw	s2,72(sp)
 3ac:	04c12983          	lw	s3,76(sp)
 3b0:	05012a03          	lw	s4,80(sp)
 3b4:	05412a83          	lw	s5,84(sp)
 3b8:	05812b03          	lw	s6,88(sp)
 3bc:	05c12b83          	lw	s7,92(sp)
 3c0:	06012c03          	lw	s8,96(sp)
 3c4:	06412c83          	lw	s9,100(sp)
 3c8:	06812d03          	lw	s10,104(sp)
 3cc:	06c12d83          	lw	s11,108(sp)
 3d0:	07012e03          	lw	t3,112(sp)
 3d4:	07412e83          	lw	t4,116(sp)
 3d8:	07812f03          	lw	t5,120(sp)
 3dc:	07c12f83          	lw	t6,124(sp)
 3e0:	00812103          	lw	sp,8(sp)
 3e4:	30200073          	mret
 3e8:	0000                	.2byte	0x0
 3ea:	0000                	.2byte	0x0
 3ec:	0000                	.2byte	0x0
 3ee:	0000                	.2byte	0x0
 3f0:	0000                	.2byte	0x0
 3f2:	0000                	.2byte	0x0
 3f4:	0000                	.2byte	0x0
 3f6:	0000                	.2byte	0x0
 3f8:	0000                	.2byte	0x0
 3fa:	0000                	.2byte	0x0
 3fc:	0000                	.2byte	0x0
 3fe:	0000                	.2byte	0x0
 400:	0000                	.2byte	0x0
 402:	0000                	.2byte	0x0

00000404 <list_getSize>:
 404:	00052503          	lw	a0,0(a0)
 408:	00008067          	ret

0000040c <list_init>:
 40c:	00052023          	sw	zero,0(a0)
 410:	00052223          	sw	zero,4(a0)
 414:	00008067          	ret

00000418 <list_push>:
 418:	00001737          	lui	a4,0x1
 41c:	30070713          	addi	a4,a4,768 # 1300 <g_nodeFreeList>
 420:	00472783          	lw	a5,4(a4)
 424:	00052683          	lw	a3,0(a0)
 428:	0047a603          	lw	a2,4(a5)
 42c:	00168693          	addi	a3,a3,1
 430:	00c72223          	sw	a2,4(a4)
 434:	00452703          	lw	a4,4(a0)
 438:	00e7a223          	sw	a4,4(a5)
 43c:	00f52223          	sw	a5,4(a0)
 440:	00b7a023          	sw	a1,0(a5)
 444:	00d52023          	sw	a3,0(a0)
 448:	00008067          	ret

0000044c <list_pop>:
 44c:	00452683          	lw	a3,4(a0)
 450:	00050793          	mv	a5,a0
 454:	00001737          	lui	a4,0x1
 458:	0046a583          	lw	a1,4(a3)
 45c:	0006a503          	lw	a0,0(a3)
 460:	30070713          	addi	a4,a4,768 # 1300 <g_nodeFreeList>
 464:	00b7a223          	sw	a1,4(a5)
 468:	00472583          	lw	a1,4(a4)
 46c:	0007a603          	lw	a2,0(a5)
 470:	00b6a223          	sw	a1,4(a3)
 474:	fff60613          	addi	a2,a2,-1
 478:	00d72223          	sw	a3,4(a4)
 47c:	00c7a023          	sw	a2,0(a5)
 480:	00008067          	ret

00000484 <list_clear>:
 484:	00052703          	lw	a4,0(a0)
 488:	02e05863          	blez	a4,4b8 <list_clear+0x34>
 48c:	000016b7          	lui	a3,0x1
 490:	30068693          	addi	a3,a3,768 # 1300 <g_nodeFreeList>
 494:	00452783          	lw	a5,4(a0)
 498:	fff70713          	addi	a4,a4,-1
 49c:	0047a603          	lw	a2,4(a5)
 4a0:	00c52223          	sw	a2,4(a0)
 4a4:	0046a603          	lw	a2,4(a3)
 4a8:	00c7a223          	sw	a2,4(a5)
 4ac:	00f6a223          	sw	a5,4(a3)
 4b0:	fe0712e3          	bnez	a4,494 <list_clear+0x10>
 4b4:	00052023          	sw	zero,0(a0)
 4b8:	00008067          	ret

000004bc <towers_init>:
 4bc:	00b52023          	sw	a1,0(a0)
 4c0:	00052223          	sw	zero,4(a0)
 4c4:	00052423          	sw	zero,8(a0)
 4c8:	00052623          	sw	zero,12(a0)
 4cc:	00052823          	sw	zero,16(a0)
 4d0:	00052a23          	sw	zero,20(a0)
 4d4:	00052c23          	sw	zero,24(a0)
 4d8:	00052e23          	sw	zero,28(a0)
 4dc:	04b05863          	blez	a1,52c <towers_init+0x70>
 4e0:	00001837          	lui	a6,0x1
 4e4:	30080813          	addi	a6,a6,768 # 1300 <g_nodeFreeList>
 4e8:	00482783          	lw	a5,4(a6)
 4ec:	00058713          	mv	a4,a1
 4f0:	00000693          	li	a3,0
 4f4:	00c0006f          	j	500 <towers_init+0x44>
 4f8:	00078693          	mv	a3,a5
 4fc:	00060793          	mv	a5,a2
 500:	0047a603          	lw	a2,4(a5)
 504:	00e7a023          	sw	a4,0(a5)
 508:	00d7a223          	sw	a3,4(a5)
 50c:	fff70713          	addi	a4,a4,-1
 510:	fe0714e3          	bnez	a4,4f8 <towers_init+0x3c>
 514:	00c82223          	sw	a2,4(a6)
 518:	00d7a223          	sw	a3,4(a5)
 51c:	00f52623          	sw	a5,12(a0)
 520:	00100713          	li	a4,1
 524:	00e7a023          	sw	a4,0(a5)
 528:	00b52423          	sw	a1,8(a0)
 52c:	00008067          	ret

00000530 <towers_clear>:
 530:	00852703          	lw	a4,8(a0)
 534:	04e05263          	blez	a4,578 <towers_clear+0x48>
 538:	000016b7          	lui	a3,0x1
 53c:	30068693          	addi	a3,a3,768 # 1300 <g_nodeFreeList>
 540:	00c52783          	lw	a5,12(a0)
 544:	0046a603          	lw	a2,4(a3)
 548:	00c0006f          	j	554 <towers_clear+0x24>
 54c:	00058793          	mv	a5,a1
 550:	00080613          	mv	a2,a6
 554:	0047a583          	lw	a1,4(a5)
 558:	fff70713          	addi	a4,a4,-1
 55c:	00c7a223          	sw	a2,4(a5)
 560:	00078813          	mv	a6,a5
 564:	fe0714e3          	bnez	a4,54c <towers_clear+0x1c>
 568:	00b52623          	sw	a1,12(a0)
 56c:	00c7a223          	sw	a2,4(a5)
 570:	00f6a223          	sw	a5,4(a3)
 574:	00052423          	sw	zero,8(a0)
 578:	01052703          	lw	a4,16(a0)
 57c:	04e05263          	blez	a4,5c0 <towers_clear+0x90>
 580:	000016b7          	lui	a3,0x1
 584:	30068693          	addi	a3,a3,768 # 1300 <g_nodeFreeList>
 588:	01452783          	lw	a5,20(a0)
 58c:	0046a603          	lw	a2,4(a3)
 590:	00c0006f          	j	59c <towers_clear+0x6c>
 594:	00058793          	mv	a5,a1
 598:	00080613          	mv	a2,a6
 59c:	0047a583          	lw	a1,4(a5)
 5a0:	fff70713          	addi	a4,a4,-1
 5a4:	00c7a223          	sw	a2,4(a5)
 5a8:	00078813          	mv	a6,a5
 5ac:	fe0714e3          	bnez	a4,594 <towers_clear+0x64>
 5b0:	00b52a23          	sw	a1,20(a0)
 5b4:	00c7a223          	sw	a2,4(a5)
 5b8:	00f6a223          	sw	a5,4(a3)
 5bc:	00052823          	sw	zero,16(a0)
 5c0:	01852703          	lw	a4,24(a0)
 5c4:	02e05a63          	blez	a4,5f8 <towers_clear+0xc8>
 5c8:	000016b7          	lui	a3,0x1
 5cc:	30068693          	addi	a3,a3,768 # 1300 <g_nodeFreeList>
 5d0:	01c52783          	lw	a5,28(a0)
 5d4:	0046a603          	lw	a2,4(a3)
 5d8:	0080006f          	j	5e0 <towers_clear+0xb0>
 5dc:	00058793          	mv	a5,a1
 5e0:	0047a583          	lw	a1,4(a5)
 5e4:	fff70713          	addi	a4,a4,-1
 5e8:	00c7a223          	sw	a2,4(a5)
 5ec:	00078613          	mv	a2,a5
 5f0:	fe0716e3          	bnez	a4,5dc <towers_clear+0xac>
 5f4:	00f6a223          	sw	a5,4(a3)
 5f8:	00052803          	lw	a6,0(a0)
 5fc:	00052223          	sw	zero,4(a0)
 600:	00052423          	sw	zero,8(a0)
 604:	00052623          	sw	zero,12(a0)
 608:	00052823          	sw	zero,16(a0)
 60c:	00052a23          	sw	zero,20(a0)
 610:	00052c23          	sw	zero,24(a0)
 614:	00052e23          	sw	zero,28(a0)
 618:	05005863          	blez	a6,668 <towers_clear+0x138>
 61c:	000016b7          	lui	a3,0x1
 620:	30068693          	addi	a3,a3,768 # 1300 <g_nodeFreeList>
 624:	0046a783          	lw	a5,4(a3)
 628:	00080713          	mv	a4,a6
 62c:	00000613          	li	a2,0
 630:	00c0006f          	j	63c <towers_clear+0x10c>
 634:	00078613          	mv	a2,a5
 638:	00058793          	mv	a5,a1
 63c:	0047a583          	lw	a1,4(a5)
 640:	00e7a023          	sw	a4,0(a5)
 644:	00c7a223          	sw	a2,4(a5)
 648:	fff70713          	addi	a4,a4,-1
 64c:	fe0714e3          	bnez	a4,634 <towers_clear+0x104>
 650:	00b6a223          	sw	a1,4(a3)
 654:	00c7a223          	sw	a2,4(a5)
 658:	00f52623          	sw	a5,12(a0)
 65c:	00100713          	li	a4,1
 660:	00e7a023          	sw	a4,0(a5)
 664:	01052423          	sw	a6,8(a0)
 668:	00008067          	ret

0000066c <towers_solve_h>:
 66c:	fb010113          	addi	sp,sp,-80
 670:	05212023          	sw	s2,64(sp)
 674:	04112623          	sw	ra,76(sp)
 678:	04812423          	sw	s0,72(sp)
 67c:	04912223          	sw	s1,68(sp)
 680:	03312e23          	sw	s3,60(sp)
 684:	03412c23          	sw	s4,56(sp)
 688:	03512a23          	sw	s5,52(sp)
 68c:	03612823          	sw	s6,48(sp)
 690:	03712623          	sw	s7,44(sp)
 694:	03812423          	sw	s8,40(sp)
 698:	03912223          	sw	s9,36(sp)
 69c:	03a12023          	sw	s10,32(sp)
 6a0:	01b12e23          	sw	s11,28(sp)
 6a4:	00b12223          	sw	a1,4(sp)
 6a8:	00100793          	li	a5,1
 6ac:	00c12423          	sw	a2,8(sp)
 6b0:	00e12623          	sw	a4,12(sp)
 6b4:	00050913          	mv	s2,a0
 6b8:	2af58263          	beq	a1,a5,95c <towers_solve_h+0x2f0>
 6bc:	00001a37          	lui	s4,0x1
 6c0:	00068b93          	mv	s7,a3
 6c4:	300a0a13          	addi	s4,s4,768 # 1300 <g_nodeFreeList>
 6c8:	00100993          	li	s3,1
 6cc:	00412783          	lw	a5,4(sp)
 6d0:	fff78793          	addi	a5,a5,-1
 6d4:	00f12223          	sw	a5,4(sp)
 6d8:	1d378c63          	beq	a5,s3,8b0 <towers_solve_h+0x244>
 6dc:	00412783          	lw	a5,4(sp)
 6e0:	00c12d83          	lw	s11,12(sp)
 6e4:	00812b03          	lw	s6,8(sp)
 6e8:	00f12023          	sw	a5,0(sp)
 6ec:	00012783          	lw	a5,0(sp)
 6f0:	fff78793          	addi	a5,a5,-1
 6f4:	00f12023          	sw	a5,0(sp)
 6f8:	11378863          	beq	a5,s3,808 <towers_solve_h+0x19c>
 6fc:	00012a83          	lw	s5,0(sp)
 700:	000b8493          	mv	s1,s7
 704:	000b0d13          	mv	s10,s6
 708:	fffa8a93          	addi	s5,s5,-1
 70c:	053a8c63          	beq	s5,s3,764 <towers_solve_h+0xf8>
 710:	000d8c13          	mv	s8,s11
 714:	000d0413          	mv	s0,s10
 718:	000a8c93          	mv	s9,s5
 71c:	fffc8c93          	addi	s9,s9,-1
 720:	000c8593          	mv	a1,s9
 724:	00090513          	mv	a0,s2
 728:	000c0713          	mv	a4,s8
 72c:	00048693          	mv	a3,s1
 730:	00040613          	mv	a2,s0
 734:	f39ff0ef          	jal	ra,66c <towers_solve_h>
 738:	00048713          	mv	a4,s1
 73c:	000c0693          	mv	a3,s8
 740:	00040613          	mv	a2,s0
 744:	00100593          	li	a1,1
 748:	00090513          	mv	a0,s2
 74c:	f21ff0ef          	jal	ra,66c <towers_solve_h>
 750:	00040713          	mv	a4,s0
 754:	013c8a63          	beq	s9,s3,768 <towers_solve_h+0xfc>
 758:	000c0413          	mv	s0,s8
 75c:	00070c13          	mv	s8,a4
 760:	fbdff06f          	j	71c <towers_solve_h+0xb0>
 764:	000d0c13          	mv	s8,s10
 768:	004c2703          	lw	a4,4(s8)
 76c:	000c2603          	lw	a2,0(s8)
 770:	00492683          	lw	a3,4(s2)
 774:	00472503          	lw	a0,4(a4)
 778:	00072583          	lw	a1,0(a4)
 77c:	fff60613          	addi	a2,a2,-1
 780:	00ac2223          	sw	a0,4(s8)
 784:	004a2503          	lw	a0,4(s4)
 788:	00cc2023          	sw	a2,0(s8)
 78c:	0004a603          	lw	a2,0(s1)
 790:	00aa2223          	sw	a0,4(s4)
 794:	0044a783          	lw	a5,4(s1)
 798:	00160613          	addi	a2,a2,1
 79c:	00268693          	addi	a3,a3,2
 7a0:	00f72223          	sw	a5,4(a4)
 7a4:	00e4a223          	sw	a4,4(s1)
 7a8:	004d2783          	lw	a5,4(s10)
 7ac:	00b72023          	sw	a1,0(a4)
 7b0:	00c4a023          	sw	a2,0(s1)
 7b4:	0047a583          	lw	a1,4(a5)
 7b8:	000d2703          	lw	a4,0(s10)
 7bc:	0007a603          	lw	a2,0(a5)
 7c0:	00bd2223          	sw	a1,4(s10)
 7c4:	004a2583          	lw	a1,4(s4)
 7c8:	fff70713          	addi	a4,a4,-1
 7cc:	00ed2023          	sw	a4,0(s10)
 7d0:	00ba2223          	sw	a1,4(s4)
 7d4:	004da583          	lw	a1,4(s11)
 7d8:	000da703          	lw	a4,0(s11)
 7dc:	00b7a223          	sw	a1,4(a5)
 7e0:	00fda223          	sw	a5,4(s11)
 7e4:	00c7a023          	sw	a2,0(a5)
 7e8:	00170793          	addi	a5,a4,1
 7ec:	00fda023          	sw	a5,0(s11)
 7f0:	00d92223          	sw	a3,4(s2)
 7f4:	013a8e63          	beq	s5,s3,810 <towers_solve_h+0x1a4>
 7f8:	000d0793          	mv	a5,s10
 7fc:	00048d13          	mv	s10,s1
 800:	00078493          	mv	s1,a5
 804:	f05ff06f          	j	708 <towers_solve_h+0x9c>
 808:	00492683          	lw	a3,4(s2)
 80c:	000b0493          	mv	s1,s6
 810:	0044a703          	lw	a4,4(s1)
 814:	0004a783          	lw	a5,0(s1)
 818:	00268693          	addi	a3,a3,2
 81c:	00472603          	lw	a2,4(a4)
 820:	00072583          	lw	a1,0(a4)
 824:	fff78793          	addi	a5,a5,-1
 828:	00c4a223          	sw	a2,4(s1)
 82c:	004a2503          	lw	a0,4(s4)
 830:	00f4a023          	sw	a5,0(s1)
 834:	000da603          	lw	a2,0(s11)
 838:	00aa2223          	sw	a0,4(s4)
 83c:	004da783          	lw	a5,4(s11)
 840:	00160613          	addi	a2,a2,1
 844:	00f72223          	sw	a5,4(a4)
 848:	00eda223          	sw	a4,4(s11)
 84c:	004b2783          	lw	a5,4(s6)
 850:	00b72023          	sw	a1,0(a4)
 854:	00cda023          	sw	a2,0(s11)
 858:	0047a583          	lw	a1,4(a5)
 85c:	000b2703          	lw	a4,0(s6)
 860:	0007a603          	lw	a2,0(a5)
 864:	00bb2223          	sw	a1,4(s6)
 868:	004a2583          	lw	a1,4(s4)
 86c:	fff70713          	addi	a4,a4,-1
 870:	00eb2023          	sw	a4,0(s6)
 874:	00ba2223          	sw	a1,4(s4)
 878:	004ba583          	lw	a1,4(s7)
 87c:	000ba703          	lw	a4,0(s7)
 880:	00b7a223          	sw	a1,4(a5)
 884:	00fba223          	sw	a5,4(s7)
 888:	00c7a023          	sw	a2,0(a5)
 88c:	00170793          	addi	a5,a4,1
 890:	00fba023          	sw	a5,0(s7)
 894:	00012783          	lw	a5,0(sp)
 898:	00d92223          	sw	a3,4(s2)
 89c:	01378e63          	beq	a5,s3,8b8 <towers_solve_h+0x24c>
 8a0:	000b0793          	mv	a5,s6
 8a4:	000d8b13          	mv	s6,s11
 8a8:	00078d93          	mv	s11,a5
 8ac:	e41ff06f          	j	6ec <towers_solve_h+0x80>
 8b0:	00492683          	lw	a3,4(s2)
 8b4:	00812d83          	lw	s11,8(sp)
 8b8:	004da703          	lw	a4,4(s11)
 8bc:	000da783          	lw	a5,0(s11)
 8c0:	00c12803          	lw	a6,12(sp)
 8c4:	00472603          	lw	a2,4(a4)
 8c8:	00072583          	lw	a1,0(a4)
 8cc:	fff78793          	addi	a5,a5,-1
 8d0:	00cda223          	sw	a2,4(s11)
 8d4:	004a2503          	lw	a0,4(s4)
 8d8:	00fda023          	sw	a5,0(s11)
 8dc:	000ba603          	lw	a2,0(s7)
 8e0:	00aa2223          	sw	a0,4(s4)
 8e4:	004ba783          	lw	a5,4(s7)
 8e8:	00812503          	lw	a0,8(sp)
 8ec:	00160613          	addi	a2,a2,1
 8f0:	00f72223          	sw	a5,4(a4)
 8f4:	00eba223          	sw	a4,4(s7)
 8f8:	00452783          	lw	a5,4(a0)
 8fc:	00b72023          	sw	a1,0(a4)
 900:	00cba023          	sw	a2,0(s7)
 904:	0047a583          	lw	a1,4(a5)
 908:	00052703          	lw	a4,0(a0)
 90c:	0007a603          	lw	a2,0(a5)
 910:	00b52223          	sw	a1,4(a0)
 914:	004a2583          	lw	a1,4(s4)
 918:	fff70713          	addi	a4,a4,-1
 91c:	00e52023          	sw	a4,0(a0)
 920:	00ba2223          	sw	a1,4(s4)
 924:	00482583          	lw	a1,4(a6)
 928:	00082703          	lw	a4,0(a6)
 92c:	00268693          	addi	a3,a3,2
 930:	00b7a223          	sw	a1,4(a5)
 934:	00f82223          	sw	a5,4(a6)
 938:	00c7a023          	sw	a2,0(a5)
 93c:	00170793          	addi	a5,a4,1
 940:	00f82023          	sw	a5,0(a6)
 944:	00412783          	lw	a5,4(sp)
 948:	00d92223          	sw	a3,4(s2)
 94c:	03378063          	beq	a5,s3,96c <towers_solve_h+0x300>
 950:	01712423          	sw	s7,8(sp)
 954:	00050b93          	mv	s7,a0
 958:	d75ff06f          	j	6cc <towers_solve_h+0x60>
 95c:	00452683          	lw	a3,4(a0)
 960:	00812b83          	lw	s7,8(sp)
 964:	00001a37          	lui	s4,0x1
 968:	300a0a13          	addi	s4,s4,768 # 1300 <g_nodeFreeList>
 96c:	004ba783          	lw	a5,4(s7)
 970:	000ba703          	lw	a4,0(s7)
 974:	00c12503          	lw	a0,12(sp)
 978:	0047a583          	lw	a1,4(a5)
 97c:	0007a603          	lw	a2,0(a5)
 980:	fff70713          	addi	a4,a4,-1
 984:	00bba223          	sw	a1,4(s7)
 988:	004a2583          	lw	a1,4(s4)
 98c:	00eba023          	sw	a4,0(s7)
 990:	00052703          	lw	a4,0(a0)
 994:	00ba2223          	sw	a1,4(s4)
 998:	00452583          	lw	a1,4(a0)
 99c:	04c12083          	lw	ra,76(sp)
 9a0:	04812403          	lw	s0,72(sp)
 9a4:	00b7a223          	sw	a1,4(a5)
 9a8:	00f52223          	sw	a5,4(a0)
 9ac:	00c7a023          	sw	a2,0(a5)
 9b0:	00170713          	addi	a4,a4,1
 9b4:	00e52023          	sw	a4,0(a0)
 9b8:	00168693          	addi	a3,a3,1
 9bc:	00d92223          	sw	a3,4(s2)
 9c0:	04412483          	lw	s1,68(sp)
 9c4:	04012903          	lw	s2,64(sp)
 9c8:	03c12983          	lw	s3,60(sp)
 9cc:	03812a03          	lw	s4,56(sp)
 9d0:	03412a83          	lw	s5,52(sp)
 9d4:	03012b03          	lw	s6,48(sp)
 9d8:	02c12b83          	lw	s7,44(sp)
 9dc:	02812c03          	lw	s8,40(sp)
 9e0:	02412c83          	lw	s9,36(sp)
 9e4:	02012d03          	lw	s10,32(sp)
 9e8:	01c12d83          	lw	s11,28(sp)
 9ec:	05010113          	addi	sp,sp,80
 9f0:	00008067          	ret

000009f4 <towers_solve>:
 9f4:	00052583          	lw	a1,0(a0)
 9f8:	01850713          	addi	a4,a0,24
 9fc:	01050693          	addi	a3,a0,16
 a00:	00850613          	addi	a2,a0,8
 a04:	c69ff06f          	j	66c <towers_solve_h>

00000a08 <towers_verify>:
 a08:	00852783          	lw	a5,8(a0)
 a0c:	00050613          	mv	a2,a0
 a10:	04079663          	bnez	a5,a5c <towers_verify+0x54>
 a14:	01052503          	lw	a0,16(a0)
 a18:	06051663          	bnez	a0,a84 <towers_verify+0x7c>
 a1c:	00062583          	lw	a1,0(a2)
 a20:	01862783          	lw	a5,24(a2)
 a24:	02b79863          	bne	a5,a1,a54 <towers_verify+0x4c>
 a28:	01c62783          	lw	a5,28(a2)
 a2c:	02078c63          	beqz	a5,a64 <towers_verify+0x5c>
 a30:	00000713          	li	a4,0
 a34:	00c0006f          	j	a40 <towers_verify+0x38>
 a38:	0047a783          	lw	a5,4(a5)
 a3c:	02078463          	beqz	a5,a64 <towers_verify+0x5c>
 a40:	0007a683          	lw	a3,0(a5)
 a44:	00170713          	addi	a4,a4,1
 a48:	fed708e3          	beq	a4,a3,a38 <towers_verify+0x30>
 a4c:	00500513          	li	a0,5
 a50:	00008067          	ret
 a54:	00400513          	li	a0,4
 a58:	00008067          	ret
 a5c:	00200513          	li	a0,2
 a60:	00008067          	ret
 a64:	00100793          	li	a5,1
 a68:	00462703          	lw	a4,4(a2)
 a6c:	00b797b3          	sll	a5,a5,a1
 a70:	fff78793          	addi	a5,a5,-1
 a74:	00f71463          	bne	a4,a5,a7c <towers_verify+0x74>
 a78:	00008067          	ret
 a7c:	00600513          	li	a0,6
 a80:	00008067          	ret
 a84:	00300513          	li	a0,3
 a88:	00008067          	ret

00000a8c <printInt_hdl>:
 a8c:	01051793          	slli	a5,a0,0x10
 a90:	00020737          	lui	a4,0x20
 a94:	0107d793          	srli	a5,a5,0x10
 a98:	00e7e7b3          	or	a5,a5,a4
 a9c:	78079073          	csrw	mtohost,a5
 aa0:	000307b7          	lui	a5,0x30
 aa4:	01055513          	srli	a0,a0,0x10
 aa8:	00f56533          	or	a0,a0,a5
 aac:	78051073          	csrw	mtohost,a0
 ab0:	00008067          	ret

00000ab4 <printChar_hdl>:
 ab4:	01051513          	slli	a0,a0,0x10
 ab8:	000107b7          	lui	a5,0x10
 abc:	01055513          	srli	a0,a0,0x10
 ac0:	00f56533          	or	a0,a0,a5
 ac4:	78051073          	csrw	mtohost,a0
 ac8:	00008067          	ret

00000acc <printStr_hdl>:
 acc:	ffc57793          	andi	a5,a0,-4
 ad0:	0007a683          	lw	a3,0(a5) # 10000 <_gp_ptr+0xe500>
 ad4:	00351713          	slli	a4,a0,0x3
 ad8:	01877713          	andi	a4,a4,24
 adc:	0ff00793          	li	a5,255
 ae0:	00e797b3          	sll	a5,a5,a4
 ae4:	00d7f7b3          	and	a5,a5,a3
 ae8:	00e7d7b3          	srl	a5,a5,a4
 aec:	04078063          	beqz	a5,b2c <printStr_hdl+0x60>
 af0:	00010637          	lui	a2,0x10
 af4:	fff60813          	addi	a6,a2,-1 # ffff <_gp_ptr+0xe4ff>
 af8:	0ff00593          	li	a1,255
 afc:	0107f7b3          	and	a5,a5,a6
 b00:	00c7e7b3          	or	a5,a5,a2
 b04:	78079073          	csrw	mtohost,a5
 b08:	00150513          	addi	a0,a0,1
 b0c:	ffc57793          	andi	a5,a0,-4
 b10:	0007a683          	lw	a3,0(a5)
 b14:	00351713          	slli	a4,a0,0x3
 b18:	01877713          	andi	a4,a4,24
 b1c:	00e597b3          	sll	a5,a1,a4
 b20:	00d7f7b3          	and	a5,a5,a3
 b24:	00e7d7b3          	srl	a5,a5,a4
 b28:	fc079ae3          	bnez	a5,afc <printStr_hdl+0x30>
 b2c:	00008067          	ret

00000b30 <mul_hdl>:
 b30:	00261613          	slli	a2,a2,0x2
 b34:	00259593          	slli	a1,a1,0x2
 b38:	00b685b3          	add	a1,a3,a1
 b3c:	00c687b3          	add	a5,a3,a2
 b40:	0005a603          	lw	a2,0(a1)
 b44:	0007a583          	lw	a1,0(a5)
 b48:	02000713          	li	a4,32
 b4c:	00000813          	li	a6,0
 b50:	00167793          	andi	a5,a2,1
 b54:	fff70713          	addi	a4,a4,-1 # 1ffff <_gp_ptr+0x1e4ff>
 b58:	00078463          	beqz	a5,b60 <mul_hdl+0x30>
 b5c:	00b80833          	add	a6,a6,a1
 b60:	00165613          	srli	a2,a2,0x1
 b64:	00159593          	slli	a1,a1,0x1
 b68:	fe0714e3          	bnez	a4,b50 <mul_hdl+0x20>
 b6c:	00251793          	slli	a5,a0,0x2
 b70:	00f686b3          	add	a3,a3,a5
 b74:	0106a023          	sw	a6,0(a3)
 b78:	00008067          	ret

00000b7c <toHostExit_hdl>:
 b7c:	01051793          	slli	a5,a0,0x10
 b80:	0107d793          	srli	a5,a5,0x10
 b84:	78079073          	csrw	mtohost,a5
 b88:	0000006f          	j	b88 <toHostExit_hdl+0xc>

00000b8c <toHostExit>:
 b8c:	00000893          	li	a7,0
 b90:	00000073          	ecall
 b94:	00008067          	ret

00000b98 <printInt>:
 b98:	00100893          	li	a7,1
 b9c:	00000073          	ecall
 ba0:	00008067          	ret

00000ba4 <printChar>:
 ba4:	00200893          	li	a7,2
 ba8:	00000073          	ecall
 bac:	00008067          	ret

00000bb0 <printStr>:
 bb0:	00300893          	li	a7,3
 bb4:	00000073          	ecall
 bb8:	00008067          	ret

00000bbc <handle_trap>:
 bbc:	00200793          	li	a5,2
 bc0:	04f50063          	beq	a0,a5,c00 <handle_trap+0x44>
 bc4:	00800713          	li	a4,8
 bc8:	00e50863          	beq	a0,a4,bd8 <handle_trap+0x1c>
 bcc:	00100793          	li	a5,1
 bd0:	78079073          	csrw	mtohost,a5
 bd4:	0000006f          	j	bd4 <handle_trap+0x18>
 bd8:	04462683          	lw	a3,68(a2)
 bdc:	02862703          	lw	a4,40(a2)
 be0:	04068463          	beqz	a3,c28 <handle_trap+0x6c>
 be4:	0cf68e63          	beq	a3,a5,cc0 <handle_trap+0x104>
 be8:	00100793          	li	a5,1
 bec:	0af68663          	beq	a3,a5,c98 <handle_trap+0xdc>
 bf0:	00300613          	li	a2,3
 bf4:	0ec68263          	beq	a3,a2,cd8 <handle_trap+0x11c>
 bf8:	78079073          	csrw	mtohost,a5
 bfc:	0000006f          	j	bfc <handle_trap+0x40>
 c00:	0005a503          	lw	a0,0(a1)
 c04:	fe0077b7          	lui	a5,0xfe007
 c08:	07f78793          	addi	a5,a5,127 # fe00707f <_gp_ptr+0xfe00557f>
 c0c:	02000737          	lui	a4,0x2000
 c10:	00f577b3          	and	a5,a0,a5
 c14:	03370713          	addi	a4,a4,51 # 2000033 <_gp_ptr+0x1ffe533>
 c18:	02e78063          	beq	a5,a4,c38 <handle_trap+0x7c>
 c1c:	00100793          	li	a5,1
 c20:	78079073          	csrw	mtohost,a5
 c24:	0000006f          	j	c24 <handle_trap+0x68>
 c28:	01071713          	slli	a4,a4,0x10
 c2c:	01075713          	srli	a4,a4,0x10
 c30:	78071073          	csrw	mtohost,a4
 c34:	0000006f          	j	c34 <handle_trap+0x78>
 c38:	01255793          	srli	a5,a0,0x12
 c3c:	07c7f793          	andi	a5,a5,124
 c40:	00d55713          	srli	a4,a0,0xd
 c44:	00f607b3          	add	a5,a2,a5
 c48:	07c77713          	andi	a4,a4,124
 c4c:	0007a803          	lw	a6,0(a5)
 c50:	00e60733          	add	a4,a2,a4
 c54:	00755513          	srli	a0,a0,0x7
 c58:	00072683          	lw	a3,0(a4)
 c5c:	01f57513          	andi	a0,a0,31
 c60:	02000713          	li	a4,32
 c64:	00000893          	li	a7,0
 c68:	0016f793          	andi	a5,a3,1
 c6c:	fff70713          	addi	a4,a4,-1
 c70:	00078463          	beqz	a5,c78 <handle_trap+0xbc>
 c74:	010888b3          	add	a7,a7,a6
 c78:	0016d693          	srli	a3,a3,0x1
 c7c:	00181813          	slli	a6,a6,0x1
 c80:	fe0714e3          	bnez	a4,c68 <handle_trap+0xac>
 c84:	00251793          	slli	a5,a0,0x2
 c88:	00f60633          	add	a2,a2,a5
 c8c:	01162023          	sw	a7,0(a2)
 c90:	00458513          	addi	a0,a1,4
 c94:	00008067          	ret
 c98:	01071793          	slli	a5,a4,0x10
 c9c:	000206b7          	lui	a3,0x20
 ca0:	0107d793          	srli	a5,a5,0x10
 ca4:	00d7e7b3          	or	a5,a5,a3
 ca8:	78079073          	csrw	mtohost,a5
 cac:	01075793          	srli	a5,a4,0x10
 cb0:	00030737          	lui	a4,0x30
 cb4:	00e7e7b3          	or	a5,a5,a4
 cb8:	78079073          	csrw	mtohost,a5
 cbc:	fd5ff06f          	j	c90 <handle_trap+0xd4>
 cc0:	01071793          	slli	a5,a4,0x10
 cc4:	0107d793          	srli	a5,a5,0x10
 cc8:	00010737          	lui	a4,0x10
 ccc:	00e7e7b3          	or	a5,a5,a4
 cd0:	78079073          	csrw	mtohost,a5
 cd4:	fbdff06f          	j	c90 <handle_trap+0xd4>
 cd8:	ffc77793          	andi	a5,a4,-4
 cdc:	0007a603          	lw	a2,0(a5)
 ce0:	00371693          	slli	a3,a4,0x3
 ce4:	0186f693          	andi	a3,a3,24
 ce8:	0ff00793          	li	a5,255
 cec:	00d797b3          	sll	a5,a5,a3
 cf0:	00c7f7b3          	and	a5,a5,a2
 cf4:	00d7d7b3          	srl	a5,a5,a3
 cf8:	f8078ce3          	beqz	a5,c90 <handle_trap+0xd4>
 cfc:	00010637          	lui	a2,0x10
 d00:	fff60813          	addi	a6,a2,-1 # ffff <_gp_ptr+0xe4ff>
 d04:	0ff00513          	li	a0,255
 d08:	0107f7b3          	and	a5,a5,a6
 d0c:	00c7e7b3          	or	a5,a5,a2
 d10:	78079073          	csrw	mtohost,a5
 d14:	00170713          	addi	a4,a4,1 # 10001 <_gp_ptr+0xe501>
 d18:	ffc77793          	andi	a5,a4,-4
 d1c:	0007a883          	lw	a7,0(a5)
 d20:	00371693          	slli	a3,a4,0x3
 d24:	0186f693          	andi	a3,a3,24
 d28:	00d517b3          	sll	a5,a0,a3
 d2c:	0117f7b3          	and	a5,a5,a7
 d30:	00d7d7b3          	srl	a5,a5,a3
 d34:	fc079ae3          	bnez	a5,d08 <handle_trap+0x14c>
 d38:	f59ff06f          	j	c90 <handle_trap+0xd4>

00000d3c <_init>:
 d3c:	ff010113          	addi	sp,sp,-16
 d40:	00000593          	li	a1,0
 d44:	00000513          	li	a0,0
 d48:	00112623          	sw	ra,12(sp)
 d4c:	018000ef          	jal	ra,d64 <main>
 d50:	00000893          	li	a7,0
 d54:	00000073          	ecall
 d58:	00c12083          	lw	ra,12(sp)
 d5c:	01010113          	addi	sp,sp,16
 d60:	00008067          	ret

Disassembly of section .text.startup:

00000d64 <main>:
 d64:	00001537          	lui	a0,0x1
 d68:	fd010113          	addi	sp,sp,-48
 d6c:	e9450513          	addi	a0,a0,-364 # e94 <main+0x130>
 d70:	02112623          	sw	ra,44(sp)
 d74:	02812423          	sw	s0,40(sp)
 d78:	02912223          	sw	s1,36(sp)
 d7c:	03212023          	sw	s2,32(sp)
 d80:	e31ff0ef          	jal	ra,bb0 <printStr>
 d84:	000017b7          	lui	a5,0x1
 d88:	00001737          	lui	a4,0x1
 d8c:	30878793          	addi	a5,a5,776 # 1308 <g_nodePool>
 d90:	30070713          	addi	a4,a4,768 # 1300 <g_nodeFreeList>
 d94:	00700693          	li	a3,7
 d98:	00f72223          	sw	a5,4(a4)
 d9c:	00d72023          	sw	a3,0(a4)
 da0:	06300713          	li	a4,99
 da4:	02e7a823          	sw	a4,48(a5)
 da8:	0207aa23          	sw	zero,52(a5)
 dac:	00000713          	li	a4,0
 db0:	00878793          	addi	a5,a5,8
 db4:	00600613          	li	a2,6
 db8:	fee7ac23          	sw	a4,-8(a5)
 dbc:	fef7ae23          	sw	a5,-4(a5)
 dc0:	00170713          	addi	a4,a4,1
 dc4:	00878793          	addi	a5,a5,8
 dc8:	fec718e3          	bne	a4,a2,db8 <main+0x54>
 dcc:	00700593          	li	a1,7
 dd0:	00010513          	mv	a0,sp
 dd4:	ee8ff0ef          	jal	ra,4bc <towers_init>
 dd8:	00010513          	mv	a0,sp
 ddc:	f54ff0ef          	jal	ra,530 <towers_clear>
 de0:	c0002473          	rdcycle	s0
 de4:	c0202973          	rdinstret	s2
 de8:	00010513          	mv	a0,sp
 dec:	c09ff0ef          	jal	ra,9f4 <towers_solve>
 df0:	c00024f3          	rdcycle	s1
 df4:	408484b3          	sub	s1,s1,s0
 df8:	c0202473          	rdinstret	s0
 dfc:	00001537          	lui	a0,0x1
 e00:	ea850513          	addi	a0,a0,-344 # ea8 <main+0x144>
 e04:	dadff0ef          	jal	ra,bb0 <printStr>
 e08:	00048513          	mv	a0,s1
 e0c:	d8dff0ef          	jal	ra,b98 <printInt>
 e10:	00a00513          	li	a0,10
 e14:	d91ff0ef          	jal	ra,ba4 <printChar>
 e18:	00001537          	lui	a0,0x1
 e1c:	eb450513          	addi	a0,a0,-332 # eb4 <main+0x150>
 e20:	d91ff0ef          	jal	ra,bb0 <printStr>
 e24:	41240433          	sub	s0,s0,s2
 e28:	00040513          	mv	a0,s0
 e2c:	d6dff0ef          	jal	ra,b98 <printInt>
 e30:	00a00513          	li	a0,10
 e34:	d71ff0ef          	jal	ra,ba4 <printChar>
 e38:	00010513          	mv	a0,sp
 e3c:	bcdff0ef          	jal	ra,a08 <towers_verify>
 e40:	00050413          	mv	s0,a0
 e44:	00001537          	lui	a0,0x1
 e48:	ec050513          	addi	a0,a0,-320 # ec0 <main+0x15c>
 e4c:	d65ff0ef          	jal	ra,bb0 <printStr>
 e50:	00040513          	mv	a0,s0
 e54:	d45ff0ef          	jal	ra,b98 <printInt>
 e58:	00a00513          	li	a0,10
 e5c:	d49ff0ef          	jal	ra,ba4 <printChar>
 e60:	02c12083          	lw	ra,44(sp)
 e64:	00040513          	mv	a0,s0
 e68:	02812403          	lw	s0,40(sp)
 e6c:	02412483          	lw	s1,36(sp)
 e70:	02012903          	lw	s2,32(sp)
 e74:	03010113          	addi	sp,sp,48
 e78:	00008067          	ret
 e7c:	00001537          	lui	a0,0x1
 e80:	00300893          	li	a7,3
 e84:	ec850513          	addi	a0,a0,-312 # ec8 <main+0x164>
 e88:	00000073          	ecall
 e8c:	fff00513          	li	a0,-1
 e90:	00008067          	ret
